(lp0
(lp1
F0.0
aF0.0
aF0.0
aF0.0
aa(lp2
F0.0
aF0.0
aF0.0
aF0.0
aa(lp3
F0.0
aF0.0
aF0.0
aF0.0
aa(lp4
F0.0
aF0.0
aF0.0
aF0.0
aa(lp5
F0.0
aF0.0
aF0.0
aF0.0
aa(lp6
F0.0
aF0.0
aF0.0
aF0.0
aa(lp7
F0.0
aF0.0
aF0.0
aF0.0
aa(lp8
F0.0
aF0.0
aF0.0
aF0.0
aa(lp9
F0.0
aF0.0
aF0.0
aF0.0
aa(lp10
F0.0
aF0.0
aF0.0
aF0.0
aa(lp11
F0.0
aF0.0
aF0.0
aF0.0
aa(lp12
F0.0
aF0.0
aF0.0
aF0.0
aa(lp13
F0.0
aF0.0
aF0.0
aF0.0
aa(lp14
F0.0
aF0.0
aF0.0
aF0.0
aa(lp15
F0.0
aF0.0
aF0.0
aF0.0
aa(lp16
F0.0
aF0.0
aF0.0
aF0.0
aa(lp17
F0.0
aF0.0
aF0.0
aF0.0
aa(lp18
F0.0
aF0.0
aF0.0
aF0.0
aa(lp19
F0.0
aF0.0
aF0.0
aF0.0
aa(lp20
F0.0
aF0.0
aF0.0
aF0.0
aa(lp21
F0.0
aF0.0
aF0.0
aF0.0
aa(lp22
F0.0
aF0.0
aF0.0
aF0.0
aa(lp23
F0.0
aF0.0
aF0.0
aF0.0
aa(lp24
F0.0
aF0.0
aF0.0
aF0.0
aa(lp25
F0.0
aF0.0
aF0.0
aF0.0
aa(lp26
F0.0
aF0.0
aF0.0
aF0.0
aa(lp27
F3.2161787146113404e-08
aF0.0
aF0.0
aF0.0
aa(lp28
F0.0
aF0.0
aF0.0
aF0.0
aa(lp29
F0.0
aF0.0
aF0.0
aF0.0
aa(lp30
F0.0
aF0.0
aF0.0
aF0.0
aa(lp31
F0.0
aF0.0
aF0.0
aF0.0
aa(lp32
F0.0
aF0.0
aF0.0
aF0.0
aa(lp33
F0.0
aF0.0
aF-0.271
aF0.0
aa(lp34
F0.0
aF0.0
aF0.0
aF0.0
aa(lp35
F0.0
aF0.0
aF0.0
aF0.0
aa(lp36
F-0.09
aF-0.09
aF-0.09
aF0.0
aa(lp37
F0.0
aF0.0
aF0.0
aF0.0
aa(lp38
F0.0
aF0.0
aF-0.19
aF0.0
aa(lp39
F0.0
aF0.0
aF0.0
aF0.0
aa(lp40
F1.4080645509524876e-07
aF0.0
aF0.0
aF0.0
aa(lp41
F0.0001206171705955366
aF4.650562279660378e-09
aF0.0
aF0.0
aa(lp42
F0.0
aF0.0
aF0.0
aF0.0
aa(lp43
F0.0
aF0.0
aF0.0
aF0.0
aa(lp44
F0.0
aF0.0
aF0.0
aF0.0
aa(lp45
F0.0
aF0.0
aF0.0
aF0.0
aa(lp46
F-0.1
aF0.0
aF0.0
aF0.0
aa(lp47
F-0.271
aF0.0
aF-0.1
aF0.0
aa(lp48
F-0.19
aF-0.1
aF-0.5591
aF-0.19538999999999998
aa(lp49
F-0.1
aF-0.271
aF-0.209
aF0.0
aa(lp50
F-0.19
aF-0.1
aF-0.2
aF-0.162
aa(lp51
F-0.1
aF-0.199
aF-0.2
aF0.0
aa(lp52
F0.0
aF-0.1
aF0.0
aF0.0
aa(lp53
F-0.1
aF-0.271
aF3.3826647927506754e-08
aF0.0
aa(lp54
F0.0
aF0.0
aF2.5188650360112075e-06
aF0.0
aa(lp55
F0.0
aF0.0
aF0.003631664265610592
aF0.0
aa(lp56
F0.0
aF0.0
aF0.0
aF0.0
aa(lp57
F0.0
aF0.0
aF0.0
aF0.0
aa(lp58
F2.570404308490887e-11
aF0.0
aF0.018915719905343638
aF0.0
aa(lp59
F4.227387989922995e-20
aF0.0
aF2.531908914464469e-10
aF0.0
aa(lp60
F-0.34390000000000004
aF-0.08099999999999932
aF3.0693225228971255e-12
aF0.0
aa(lp61
F-0.56
aF4.3031890714598314e-20
aF0.0
aF-0.271
aa(lp62
F-0.398
aF-0.29000000000000004
aF-0.58178
aF-0.28
aa(lp63
F-0.38
aF-0.2
aF-0.30000000000000004
aF-0.271
aa(lp64
F-0.38
aF-0.2
aF-0.30000000000000004
aF-0.10900000000000001
aa(lp65
F-0.1
aF-0.2
aF-0.2
aF-0.1
aa(lp66
F0.0
aF-0.2
aF-0.1
aF-0.1
aa(lp67
F-0.1
aF-0.30951000000000006
aF-0.09986897683
aF0.0
aa(lp68
F0.0006129847543806712
aF0.0
aF1.780349890921408e-08
aF0.0
aa(lp69
F4.652611484832853e-06
aF0.0
aF0.04800739309855644
aF0.0
aa(lp70
F0.0
aF0.0
aF0.0
aF0.0
aa(lp71
F0.0
aF0.0
aF0.0
aF0.0
aa(lp72
F0.006294488464319902
aF0.003751746313168456
aF0.3538972663613908
aF0.0
aa(lp73
F1.0034113622224695e-14
aF6.099896218175279e-13
aF0.1440406099411418
aF8.991793058660234e-13
aa(lp74
F-0.31951
aF-0.053144099997954
aF-0.0940045786308448
aF0.002415487791015131
aa(lp75
F-0.6499100000000001
aF6.419073658106193e-14
aF-0.19
aF-0.1
aa(lp76
F-0.5880000000000001
aF-0.271
aF-0.48
aF-0.3971
aa(lp77
F-0.48
aF-0.209
aF-0.30000000000000004
aF-0.3971
aa(lp78
F-0.2
aF-0.31800000000000006
aF-0.2
aF0.0
aa(lp79
F-0.1
aF-0.30000000000000004
aF-0.06410000000000003
aF0.0
aa(lp80
F0.10259613937395148
aF0.0
aF-0.1
aF0.0
aa(lp81
F0.3967632642417393
aF-0.33661
aF1.4973644126599563
aF-0.081
aa(lp82
F0.007808774898669173
aF0.0
aF0.997702718295653
aF0.0
aa(lp83
F4.675809250837117e-05
aF6.154295919234496e-06
aF0.3325103682767624
aF0.00010852981404985085
aa(lp84
F0.0
aF0.0
aF0.0
aF0.0
aa(lp85
F0.0
aF0.0
aF0.0
aF0.0
aa(lp86
F0.10454266576505877
aF0.28905383302968757
aF0.8055119735110051
aF0.07955789866100871
aa(lp87
F-0.008236134570151328
aF0.5407037512777577
aF0.05565252282347026
aF0.008557687953887609
aa(lp88
F-0.8677724208161453
aF0.014291388036281556
aF-0.09650889926350743
aF-0.09954860309387792
aa(lp89
F-0.551
aF-0.19204395849704792
aF-0.4704061637470064
aF-0.271
aa(lp90
F-0.30000000000000004
aF-0.36910000000000004
aF-0.389
aF-0.2
aa(lp91
F-0.30000000000000004
aF-0.2
aF-0.30000000000000004
aF0.0
aa(lp92
F-0.2
aF-0.30000000000000004
aF0.0
aF-0.029000000000000005
aa(lp93
F-0.1
aF-0.38
aF4.294091690233709
aF0.0
aa(lp94
F5.479465605541598
aF-0.08562354086868376
aF0.6717554412828811
aF-0.2740868900726695
aa(lp95
F0.9693735835676071
aF0.15007826255168577
aF6.529877704673758
aF0.09255355393936321
aa(lp96
F0.009436208785459171
aF0.433686158944666
aF4.543925585268491
aF0.027412046475239583
aa(lp97
F0.0
aF1.3148589497309555
aF0.062061412155481395
aF0.0
aa(lp98
F0.0
aF0.0
aF0.0
aF0.0
aa(lp99
F0.0
aF0.0
aF0.0
aF0.0
aa(lp100
F0.28805772596517387
aF0.4630927910649306
aF0.9637632018005092
aF0.3405337966759431
aa(lp101
F-0.011331938773518364
aF0.6880408805005869
aF-0.00798039565457617
aF-0.0038556653163063772
aa(lp102
F-0.6518334034765647
aF-0.1781014322370695
aF-0.16809736977161877
aF-0.002271260775454892
aa(lp103
F-0.38
aF-0.024295474813311325
aF-0.44226759488347567
aF-0.40470266593615745
aa(lp104
F-0.5700000000000001
aF-0.19
aF-0.3971
aF-0.41420000000000007
aa(lp105
F-0.29000000000000004
aF-0.2171
aF-0.22519997082118282
aF0.0
aa(lp106
F7.712320754503899
aF0.0
aF-0.2
aF0.0
aa(lp107
F0.0
aF0.0
aF0.0
aF0.0
aa(lp108
F6.4410183097419775
aF9.322225043261636
aF6.486610999060604
aF3.1379185447243785
aa(lp109
F3.5330577416773075
aF7.386400469493873
aF4.50203675030302
aF3.9651746844359486
aa(lp110
F1.0414339687377714
aF6.5743981627782215
aF2.1867557192095926
aF0.68199421001835
aa(lp111
F0.26626487261185566
aF3.481964067295606
aF0.0003196827458740149
aF0.00435155327957041
aa(lp112
F0.0
aF0.0
aF0.0
aF0.0
aa(lp113
F0.0
aF0.0
aF0.0
aF0.0
aa(lp114
F0.3505523207933686
aF0.5944902089505335
aF1.0742984059254066
aF0.5821640992722481
aa(lp115
F0.002529661916216993
aF0.8562941146671856
aF-0.001044114427528319
aF1.555024130531025e-09
aa(lp116
F-0.838644970605943
aF-0.23889135123842636
aF-0.11916104467244218
aF-0.04142146381698217
aa(lp117
F-0.5753900000000001
aF-0.37250549244026154
aF-0.4258031745274566
aF-0.4130196111193122
aa(lp118
F-0.3971
aF-0.4411168720260053
aF-0.44714660862856703
aF-0.38
aa(lp119
F-0.5176395677000001
aF-0.575219
aF-0.39730681913368776
aF-0.48
aa(lp120
F-0.1525084274519254
aF-0.389
aF-0.29000000000000004
aF1.8595512129450338
aa(lp121
F0.8838918881802524
aF-0.538049
aF1.048327927625322
aF9.673621540218734
aa(lp122
F5.7464386035790485
aF6.489859010803636
aF5.905224897425915
aF7.350983507068282
aa(lp123
F2.542221256775892
aF3.070516295242089
aF0.731326416150379
aF6.527880932617948
aa(lp124
F1.2124834084874607
aF2.62917435851764
aF0.8793585492233711
aF5.843905664707243
aa(lp125
F0.0
aF2.783727294218755
aF1.3633381070786596e-05
aF0.232699398142712
aa(lp126
F0.0
aF0.0
aF0.0
aF0.0
aa(lp127
F0.0
aF0.0
aF0.0
aF0.0
aa(lp128
F0.5332029649949263
aF0.7771175281363065
aF1.189692969484195
aF0.4519509306159829
aa(lp129
F-0.013622464705597914
aF0.09891965144521682
aF1.1270870378092959
aF0.08683218291175263
aa(lp130
F-0.7319796731738272
aF-0.07819847765063999
aF0.257285019484348
aF-0.04076618417512764
aa(lp131
F-0.28
aF-0.03267812653631316
aF-0.18711048602628116
aF-0.31628502620415705
aa(lp132
F-0.30436101372110635
aF-0.27756099999942807
aF0.16954472712498708
aF-0.5891510000000001
aa(lp133
F-0.3566526924468472
aF-0.29679048999995866
aF0.7316689202654252
aF-0.542
aa(lp134
F0.8451529027123512
aF-0.32132286815446837
aF3.252195176456185
aF-0.622044045095707
aa(lp135
F5.486398720362556
aF0.2472702569078026
aF2.4382449441451577
aF2.6407858820094217
aa(lp136
F4.735950049279696
aF3.770586324568012
aF5.024749713760325
aF6.6039581111451096
aa(lp137
F1.3225837282267203
aF0.9878300574249854
aF0.5804788395036925
aF5.645793802707858
aa(lp138
F0.03856870510189943
aF0.6693677701863147
aF0.8622289440798072
aF5.034750630886738
aa(lp139
F3.654983458805103e-05
aF0.0
aF1.3633381070786596e-05
aF0.7387127122382451
aa(lp140
F0.0
aF0.0
aF0.0
aF0.0
aa(lp141
F0.0
aF0.0
aF0.0
aF0.0
aa(lp142
F1.3467881471593766
aF0.8713385124841843
aF1.0561525073667586
aF0.7071065432918738
aa(lp143
F0.7144990277523141
aF0.8638375347757731
aF1.48323381790756
aF0.5506761259287596
aa(lp144
F0.07388745446192221
aF0.23889557070161885
aF1.5312788184770945
aF-0.009092947252692515
aa(lp145
F-0.11774960370914495
aF-0.14688345626930496
aF1.1032879804380327
aF-0.6671159946814714
aa(lp146
F2.3029878414516416
aF-0.035323610198397595
aF-0.0736117156248521
aF-0.2071
aa(lp147
F3.856233798339542
aF0.5208642722981047
aF0.332105179658232
aF-0.6518030606960635
aa(lp148
F4.3643980426637565
aF3.1544159012356343
aF3.54464032832245
aF2.1580652516797794
aa(lp149
F5.083254442633445
aF3.461521792510405
aF3.875578852356234
aF3.5110246707586255
aa(lp150
F3.121310933926869
aF4.131911904989993
aF2.957861063426349
aF5.877356726429436
aa(lp151
F3.397882585261563
aF0.4390152965589683
aF0.10293403642721097
aF1.040402880804825
aa(lp152
F0.05792494062208138
aF0.17311959685975126
aF0.15595714496184226
aF4.205003000371873
aa(lp153
F0.0
aF0.9261803137148028
aF4.233304941254104e-11
aF9.154034026135179e-05
aa(lp154
F0.0
aF0.0
aF0.0
aF0.0
aa(lp155
F0.0
aF0.0
aF0.0
aF0.0
aa(lp156
F1.488148818273519
aF0.40492034316140935
aF0.9494157951317022
aF0.7339833083417181
aa(lp157
F1.530249420827706
aF0.9137050682409671
aF1.6422222548921062
aF1.1883488999789824
aa(lp158
F0.6525171930134332
aF0.4413817201965198
aF1.8905005479815862
aF0.0008623287954246931
aa(lp159
F0.526178274485409
aF0.24064852474612733
aF1.9676233234784055
aF0.14530178702187907
aa(lp160
F3.0871407347465736
aF0.39783924084997646
aF0.4564185633501311
aF0.45060081085496945
aa(lp161
F3.3653115246974514
aF2.6074607480292418
aF2.6755281344711457
aF2.904454113764282
aa(lp162
F3.6298290969668985
aF3.117347354840032
aF2.9365386450715523
aF3.8157866744193534
aa(lp163
F0.5465270695212502
aF1.3853377092459165
aF0.36868436177520253
aF4.333454582262485
aa(lp164
F0.14822819832613848
aF0.3943280632627354
aF0.005416865412700935
aF4.315829841707947
aa(lp165
F0.15060450733609163
aF0.37786736600028864
aF0.00028648590290782333
aF1.7971450726063343
aa(lp166
F2.7506854719000016e-09
aF0.0
aF0.0
aF1.784105913300485
aa(lp167
F0.0
aF4.703672156949004e-10
aF0.0
aF0.0018317023773872041
aa(lp168
F0.0
aF0.0
aF0.0
aF0.0
aa(lp169
F0.0
aF0.0
aF0.0
aF0.0
aa(lp170
F1.6311533216191456
aF0.958420625894623
aF1.0470274278705278
aF0.7584888800721165
aa(lp171
F1.8647810654503685
aF1.4894372703754464
aF1.4772062683382257
aF1.3985586404260915
aa(lp172
F2.125240557979444
aF1.6449439379490323
aF1.6529705371949965
aF1.529360516523433
aa(lp173
F2.4545712884810147
aF1.724082923251688
aF2.0993674962018476
aF1.5404254613273756
aa(lp174
F2.739052378729375
aF1.9748901791918758
aF2.161572599608353
aF2.4543328399387594
aa(lp175
F2.728904037101299
aF2.182929670419019
aF2.6593283971542756
aF3.04561648633515
aa(lp176
F0.6508487613657403
aF0.7327478528575117
aF0.5236249577712768
aF3.5095079243178753
aa(lp177
F1.4671119473820296e-05
aF0.0
aF0.0
aF2.2034997811970647
aa(lp178
F0.03854250259930864
aF1.3204007526438266e-06
aF0.0
aF0.0
aa(lp179
F2.4049046048108767e-10
aF0.15265593157440277
aF0.0
aF0.40102540764807537
aa(lp180
F0.0
aF4.738140320040565e-11
aF0.0
aF1.0300450111447883e-05
aa(lp181
F0.0
aF0.0
aF0.0
aF2.228055232239002e-11
aa(lp182
F0.0
aF0.0
aF0.0
aF0.0
aa(lp183
F0.0
aF0.0
aF0.0
aF0.0
aa(lp184
F0.0
aF0.0
aF0.0
aF0.0
aa(lp185
F0.0
aF0.0
aF0.0
aF0.0
aa(lp186
F0.0
aF0.0
aF0.0
aF0.0
aa(lp187
F0.0
aF0.0
aF0.0
aF0.0
aa(lp188
F0.0
aF0.0
aF0.0
aF0.0
aa(lp189
F0.0
aF0.0
aF0.0
aF0.0
aa(lp190
F0.0
aF0.0
aF0.0
aF0.0
aa(lp191
F0.0
aF0.0
aF0.0
aF0.0
aa(lp192
F0.0
aF0.0
aF0.0
aF0.0
aa(lp193
F0.0
aF0.0
aF0.0
aF0.0
aa(lp194
F0.0
aF0.0
aF0.0
aF0.0
aa(lp195
F0.0
aF0.0
aF0.0
aF0.0
aa(lp196
F0.0
aF0.0
aF0.0
aF0.0
aa.