(lp0
(lp1
F0.0
aF0.0
aF0.0
aF0.0
aa(lp2
F0.0
aF0.0
aF0.0
aF0.0
aa(lp3
F0.0
aF0.0
aF0.0
aF0.0
aa(lp4
F0.0
aF0.0
aF0.0
aF0.0
aa(lp5
F0.0
aF0.0
aF0.0
aF0.0
aa(lp6
F0.0
aF0.0
aF0.0
aF0.0
aa(lp7
F0.0
aF0.0
aF0.0
aF0.0
aa(lp8
F0.0
aF0.0
aF0.0
aF0.0
aa(lp9
F0.0
aF0.0
aF0.0
aF0.0
aa(lp10
F0.0
aF0.0
aF0.0
aF0.0
aa(lp11
F0.0
aF0.0
aF0.0
aF0.0
aa(lp12
F0.0
aF0.0
aF0.0
aF0.0
aa(lp13
F0.0
aF0.0
aF0.0
aF0.0
aa(lp14
F0.0
aF0.0
aF0.0
aF0.0
aa(lp15
F0.0
aF0.0
aF0.0
aF0.0
aa(lp16
F0.0
aF0.0
aF0.0
aF0.0
aa(lp17
F0.0
aF0.0
aF0.0
aF0.0
aa(lp18
F0.0
aF0.0
aF0.0
aF0.0
aa(lp19
F0.0
aF0.0
aF0.0
aF0.0
aa(lp20
F0.0
aF0.0
aF0.0
aF0.0
aa(lp21
F1.7554121169057514e-12
aF0.0
aF0.0
aF0.0
aa(lp22
F3.510824233811503e-11
aF0.0
aF0.0
aF0.0
aa(lp23
F7.821745204921156e-08
aF0.0
aF0.0
aF0.0
aa(lp24
F2.407972725522292e-09
aF0.0
aF2.3235834433496754e-06
aF0.0
aa(lp25
F0.0
aF0.0
aF0.0
aF0.0
aa(lp26
F0.0
aF0.0
aF0.0
aF0.0
aa(lp27
F4.548844311101823e-09
aF0.0
aF0.0
aF4.5488443111018233e-10
aa(lp28
F0.0
aF0.0
aF0.0
aF0.0
aa(lp29
F0.0
aF0.0
aF0.0
aF0.0
aa(lp30
F0.0
aF0.0
aF0.0
aF0.0
aa(lp31
F0.0
aF0.0
aF0.0
aF0.0
aa(lp32
F-0.007290000000000001
aF0.0
aF0.0
aF0.0
aa(lp33
F-0.0729
aF-0.1
aF-0.19
aF-0.1
aa(lp34
F-0.10900000000000001
aF-0.116929
aF-0.008100000000000001
aF0.0
aa(lp35
F0.0
aF0.0
aF0.0
aF0.0
aa(lp36
F0.0
aF0.0
aF0.0
aF0.0
aa(lp37
F1.30271324450756e-08
aF0.0
aF-0.1
aF0.0
aa(lp38
F3.418939043136279e-05
aF0.0
aF-0.5217030995882367
aF1.1529373409800739e-09
aa(lp39
F0.0002084194120179793
aF0.00026851539736113265
aF0.0
aF0.0
aa(lp40
F0.0
aF2.6489467717984167e-06
aF0.004228949665078146
aF0.0
aa(lp41
F5.6158571741997823e-08
aF0.0
aF0.0
aF4.6412042761981674e-10
aa(lp42
F0.0
aF0.0
aF0.0
aF0.0
aa(lp43
F0.0
aF0.0
aF0.0
aF0.0
aa(lp44
F0.0
aF0.0
aF0.0
aF0.0
aa(lp45
F0.0
aF0.0
aF0.0
aF0.0
aa(lp46
F-0.46855900000000006
aF-0.09
aF-0.06561
aF0.0
aa(lp47
F-0.208
aF-0.19449
aF-0.2791
aF-0.009000000000000001
aa(lp48
F-0.271
aF-0.28
aF-0.5672
aF-0.16929
aa(lp49
F-0.1
aF-0.2071
aF-0.2
aF0.0
aa(lp50
F-0.1
aF0.0
aF0.0
aF0.0
aa(lp51
F-0.271
aF-0.1
aF0.0
aF0.0
aa(lp52
F-0.1
aF-0.1
aF-0.2709934032704003
aF1.714476580571872e-08
aa(lp53
F0.00018503635365526943
aF-0.1
aF0.0
aF0.0
aa(lp54
F2.972805833978138e-07
aF0.0
aF0.025306794556864153
aF0.00026986933110152163
aa(lp55
F6.366535358296526e-07
aF0.0009911391672065238
aF0.0
aF0.0
aa(lp56
F0.0
aF0.0
aF0.0
aF0.0
aa(lp57
F0.0
aF0.0
aF0.0
aF0.0
aa(lp58
F0.0
aF0.0
aF0.0
aF0.0
aa(lp59
F0.0
aF0.0
aF0.0
aF0.0
aa(lp60
F-0.5382455599
aF-0.09162882
aF-0.06718770536481
aF0.0
aa(lp61
F-0.7211000000000001
aF-0.1458
aF-0.38159856721
aF-0.181
aa(lp62
F-0.6878000000000001
aF-0.28558
aF-0.29000000000000004
aF-0.29791
aa(lp63
F-0.2
aF-0.30000000000000004
aF-0.30000000000000004
aF-0.38
aa(lp64
F-0.2
aF-0.2
aF0.0
aF0.0
aa(lp65
F-0.1
aF-0.2
aF-0.2171
aF-0.1
aa(lp66
F0.03220160037767899
aF-0.38
aF0.0
aF-0.28
aa(lp67
F-0.07260636442243287
aF-0.34388667745578994
aF0.49737583171686406
aF4.49229628625217e-06
aa(lp68
F6.366535358296526e-07
aF0.1442400482718136
aF0.0
aF0.0
aa(lp69
F0.0
aF0.0
aF0.00010062628012699516
aF0.0
aa(lp70
F0.0
aF0.0
aF0.0
aF0.0
aa(lp71
F0.0
aF0.0
aF0.0
aF0.0
aa(lp72
F9.116053082305984e-09
aF2.6180354278045495e-05
aF0.3762888813518336
aF0.0
aa(lp73
F-0.00746334767681781
aF1.272372697119396e-07
aF0.04333447041351867
aF-0.001094189840836542
aa(lp74
F-0.5761417309325496
aF-0.005810947160059347
aF-0.105777420489
aF-0.103122
aa(lp75
F-0.5591
aF-0.12505754718632534
aF-0.204661
aF-0.35290000000000005
aa(lp76
F-0.9039
aF-0.2872
aF-0.2
aF-0.209
aa(lp77
F-0.5700000000000001
aF-0.3971
aF-0.30000000000000004
aF-0.2171
aa(lp78
F-0.2
aF-0.30000000000000004
aF-0.2
aF0.0
aa(lp79
F-0.2855571816783963
aF-0.30000000000000004
aF-0.38
aF-0.2
aa(lp80
F-0.161746463093292
aF-0.38
aF2.029376734576752
aF-0.27099882610588
aa(lp81
F-0.0775845953300528
aF-0.2881
aF2.213928689882618
aF0.017731576563851433
aa(lp82
F0.0
aF0.0830568967625262
aF0.021758862640110413
aF0.0
aa(lp83
F0.0
aF0.0029008950852969237
aF0.0
aF0.0
aa(lp84
F0.0
aF0.0
aF0.0
aF0.0
aa(lp85
F0.0
aF0.0
aF0.0
aF0.0
aa(lp86
F0.07278636452214293
aF0.2528570032334162
aF0.6356311964647585
aF0.11092194522883461
aa(lp87
F-0.004682623260352721
aF0.4935565704797143
aF0.022254889855114337
aF-0.0013444316864046908
aa(lp88
F-0.661736150128
aF-0.0729
aF-0.17961946524389572
aF-0.014253773945286125
aa(lp89
F-0.831998
aF-0.043046721
aF-0.19729000000000002
aF-0.19
aa(lp90
F-0.4700000000000001
aF-0.28077910489
aF-0.389
aF-0.2
aa(lp91
F-0.2
aF-0.2
aF0.0
aF-0.30000000000000004
aa(lp92
F-0.11000000000000001
aF-0.30000000000000004
aF0.0
aF0.0
aa(lp93
F-0.1
aF-0.2
aF1.9
aF-0.209
aa(lp94
F1.6736186714456833
aF-0.2
aF6.797069922400838
aF0.3379628571888845
aa(lp95
F0.1260640418349976
aF0.186270855179624
aF6.191435246656706
aF-0.018495806553621912
aa(lp96
F4.6583100000000015e-06
aF0.00828725310014006
aF2.067764622709493
aF0.0
aa(lp97
F0.0
aF0.0
aF0.08975093797259176
aF1.556023876502066e-05
aa(lp98
F0.0
aF0.0
aF0.0
aF0.0
aa(lp99
F0.0
aF0.0
aF0.0
aF0.0
aa(lp100
F0.14252149019900118
aF0.48814953514128545
aF0.6885058235046865
aF0.19806820322111
aa(lp101
F-0.035530132280220915
aF0.0563950666381876
aF0.0390466540736702
aF0.28230813939909
aa(lp102
F-0.5710759205733267
aF0.04379554550290228
aF-0.15400727167153982
aF-0.13343196186543355
aa(lp103
F-0.38
aF-0.0780634161371263
aF-0.199
aF-0.1981
aa(lp104
F-0.30000000000000004
aF-0.29981
aF-0.38981000000000005
aF-0.21769049
aa(lp105
F-0.29000000000000004
aF0.0
aF0.0
aF0.0
aa(lp106
F6.12579511
aF0.0
aF-0.1887023
aF0.0
aa(lp107
F0.0
aF0.0
aF0.0
aF0.0
aa(lp108
F6.796714878973216
aF9.251824224497254
aF6.701352510041044
aF5.545630681452659
aa(lp109
F3.9673509554899127
aF7.3319249017685415
aF3.830300021516194
aF1.8221361784494932
aa(lp110
F0.5712234679199718
aF6.281735761838883
aF0.8410725563778264
aF0.3936942180790495
aa(lp111
F0.2694324716695839
aF3.633824235115047
aF0.2610368049174043
aF0.00028442797410814323
aa(lp112
F0.0
aF0.0
aF0.0
aF0.0
aa(lp113
F0.0
aF0.0
aF0.0
aF0.0
aa(lp114
F0.4482192878973523
aF0.5678580522591012
aF0.8014037418299215
aF0.32965025054137387
aa(lp115
F-0.028419065089192813
aF0.649215617316936
aF0.13579844486622106
aF0.01725371008093551
aa(lp116
F-0.6427055219460254
aF-0.09235735218458099
aF0.025462215492445997
aF-0.15227415285404816
aa(lp117
F-0.2
aF-0.07478408927453817
aF-0.1
aF-0.10715149
aa(lp118
F-0.2
aF-0.2062621801365743
aF-0.21520000000000003
aF-0.38
aa(lp119
F-0.38
aF-0.20981000000000002
aF-0.1
aF0.0
aa(lp120
F-0.04198102264108658
aF-0.2
aF-0.1
aF1.301413474897535
aa(lp121
F6.04388316917361
aF-0.45487732763000005
aF0.6777780452745759
aF1.9
aa(lp122
F5.7764071795728755
aF3.9795433842478003
aF4.243693191484777
aF7.183588556696134
aa(lp123
F4.586996215801189
aF6.29465182708757
aF5.044378870175546
aF6.493134134716685
aa(lp124
F0.35411232089122824
aF5.494852354921371
aF0.8075648177575718
aF0.6829966126112207
aa(lp125
F0.05331063341647681
aF0.00025794218498929086
aF0.001585499512599068
aF1.95382949265663
aa(lp126
F0.0
aF0.0
aF0.0
aF0.0
aa(lp127
F0.0
aF0.0
aF0.0
aF0.0
aa(lp128
F0.9032463750132564
aF0.5633745490027083
aF0.5479354991624462
aF0.40430857194596004
aa(lp129
F0.5759839224610722
aF0.5572881008670832
aF1.0129496477027176
aF0.34562841370521385
aa(lp130
F-0.46859057510319146
aF0.1165263511824882
aF1.0910695055249473
aF-0.01740038141902818
aa(lp131
F-0.36100000000000004
aF0.22790413869300005
aF-0.11489575006461858
aF-0.35227656721
aa(lp132
F-0.27876829690000005
aF-0.27105179306647775
aF-0.13109329559582894
aF-0.2
aa(lp133
F-0.19
aF-0.1
aF-0.08631441
aF-0.38
aa(lp134
F-0.28
aF-0.28839800000000004
aF0.5778566806301523
aF-0.20261
aa(lp135
F0.43070181468115626
aF-0.29710000000000003
aF3.001515225659032
aF0.6148644667310126
aa(lp136
F5.11555022878173
aF-0.1442628178049422
aF1.3487519152234957
aF2.7016048095872005
aa(lp137
F4.0162859011467855
aF4.3284497049551165
aF4.175466624357192
aF5.814158148834746
aa(lp138
F0.027517292298484878
aF4.949460830895225
aF0.039142915524211855
aF0.5012089606273602
aa(lp139
F0.004060298205945101
aF1.3524135763169438
aF0.0002865424654145535
aF0.16340033137740526
aa(lp140
F0.0
aF0.0
aF0.0
aF0.0
aa(lp141
F0.0
aF0.0
aF0.0
aF0.0
aa(lp142
F1.0248150406135126
aF0.18225331022362887
aF0.11605864014991148
aF0.2412997129605733
aa(lp143
F1.2349190760255722
aF0.522970784018179
aF0.777749866007622
aF0.6020156434803636
aa(lp144
F0.6578523748967282
aF0.4084985926973654
aF1.4035211303148203
aF0.4576975196267965
aa(lp145
F0.033594103695956994
aF-0.09999999980570093
aF1.5944682712620166
aF-0.4457209376636396
aa(lp146
F-0.020194757973880817
aF0.061241756800793544
aF1.448508475864358
aF-0.20619999970655922
aa(lp147
F0.1350826824666999
aF-0.087561
aF1.8489531594708755
aF-0.2872
aa(lp148
F0.8380720633150669
aF0.2673269506609093
aF2.756736565939335
aF-0.32851
aa(lp149
F3.8723944156251235
aF0.9245945347911788
aF0.6100621194369765
aF0.46861786921532744
aa(lp150
F4.494331197750467
aF3.529757607151262
aF3.489776291488363
aF4.047790144765563
aa(lp151
F3.7385414091398514
aF3.7298288553121424
aF3.959762156084296
aF4.9540556266415505
aa(lp152
F0.15678024550956354
aF4.509499710958337
aF0.0041716731607533185
aF0.341250101907492
aa(lp153
F2.617604071933454e-05
aF6.162897497550731e-05
aF4.426015689188486e-08
aF0.19246107150824193
aa(lp154
F0.0
aF0.0
aF0.0
aF0.0
aa(lp155
F0.0
aF0.0
aF0.0
aF0.0
aa(lp156
F1.2047221827807921
aF0.562207610717805
aF0.5919220654136101
aF0.23984841378855848
aa(lp157
F1.3985542669141529
aF0.6485603870663503
aF0.9289592663341513
aF0.5647832984486716
aa(lp158
F1.3305113600637621
aF0.9326145806332172
aF1.5909499783301118
aF0.9101815165608258
aa(lp159
F2.12242997529703
aF0.5391945318141375
aF0.8449625353611764
aF0.3040766119512288
aa(lp160
F2.393374385295433
aF0.3175691710825335
aF0.35317616126697393
aF0.4259773570303125
aa(lp161
F2.792924914057711
aF0.9522532697133278
aF1.2055447640888635
aF0.6508998098538371
aa(lp162
F3.155147619067901
aF2.445102009038285
aF2.3477901877177785
aF2.0205174560098147
aa(lp163
F3.518461962303887
aF2.6378367972145913
aF2.4273128954235514
aF3.1684391475844182
aa(lp164
F3.7773698658004635
aF3.012334997723203
aF3.1867922145730856
aF3.9630933098678924
aa(lp165
F0.6521971893102985
aF0.9300434086236615
aF0.8923084457392599
aF4.368938604998106
aa(lp166
F2.7907709282256425e-05
aF2.395479724260643
aF3.270786784396835e-06
aF0.0008166216268962923
aa(lp167
F1.4925063910706915e-07
aF2.4191635232777735e-08
aF1.7291967292121867e-08
aF0.017996187215668008
aa(lp168
F0.0
aF0.0
aF0.0
aF0.0
aa(lp169
F0.0
aF0.0
aF0.0
aF0.0
aa(lp170
F1.3380608741753535
aF0.7674013958629747
aF0.5722279243730766
aF0.49211270880774877
aa(lp171
F1.548758445317166
aF0.9599479017258244
aF0.7512420617580633
aF0.8386580313086069
aa(lp172
F1.7370758999678557
aF1.2812642295270544
aF1.4776919929603711
aF1.2173511527731504
aa(lp173
F1.9796659851829568
aF1.5293358667862667
aF1.488355706437962
aF1.476135505965093
aa(lp174
F2.227302901371584
aF1.5481276248077764
aF1.8808842924779434
aF1.8163395554291877
aa(lp175
F2.5157278281500894
aF1.877437598232397
aF1.8328028037105557
aF2.1958723041587294
aa(lp176
F2.4626126383665428
aF1.8386011315912052
aF2.345489032679988
aF2.8442151308891224
aa(lp177
F3.1502999102185054
aF0.8592868364419208
aF0.5869629300124019
aF1.0318361024681966
aa(lp178
F0.6925866268013351
aF0.5141496532540852
aF1.3622788558086063
aF3.581215327491167
aa(lp179
F3.9586518121889227e-08
aF9.577724904504794e-08
aF7.474174666663776e-05
aF3.2962466565071087
aa(lp180
F1.8766868488744558e-08
aF1.2290860877124902e-05
aF1.895101511373412e-05
aF0.09544240080533307
aa(lp181
F7.071142025145624e-08
aF7.139482349023542e-10
aF7.623494313391604e-09
aF1.0409830772360158e-05
aa(lp182
F0.0
aF0.0
aF0.0
aF0.0
aa(lp183
F0.0
aF0.0
aF0.0
aF0.0
aa(lp184
F0.0
aF0.0
aF0.0
aF0.0
aa(lp185
F0.0
aF0.0
aF0.0
aF0.0
aa(lp186
F0.0
aF0.0
aF0.0
aF0.0
aa(lp187
F0.0
aF0.0
aF0.0
aF0.0
aa(lp188
F0.0
aF0.0
aF0.0
aF0.0
aa(lp189
F0.0
aF0.0
aF0.0
aF0.0
aa(lp190
F0.0
aF0.0
aF0.0
aF0.0
aa(lp191
F0.0
aF0.0
aF0.0
aF0.0
aa(lp192
F0.0
aF0.0
aF0.0
aF0.0
aa(lp193
F0.0
aF0.0
aF0.0
aF0.0
aa(lp194
F0.0
aF0.0
aF0.0
aF0.0
aa(lp195
F0.0
aF0.0
aF0.0
aF0.0
aa(lp196
F0.0
aF0.0
aF0.0
aF0.0
aa.