(lp0
(lp1
F0.0
aF0.0
aF0.0
aF0.0
aa(lp2
F0.0
aF0.0
aF0.0
aF0.0
aa(lp3
F0.0
aF0.0
aF0.0
aF0.0
aa(lp4
F0.0
aF0.0
aF0.0
aF0.0
aa(lp5
F0.0
aF0.0
aF0.0
aF0.0
aa(lp6
F0.0
aF0.0
aF0.0
aF0.0
aa(lp7
F0.0
aF0.0
aF0.0
aF0.0
aa(lp8
F0.0
aF0.0
aF0.0
aF0.0
aa(lp9
F0.0
aF0.0
aF0.0
aF0.0
aa(lp10
F0.0
aF0.0
aF0.0
aF0.0
aa(lp11
F0.0
aF0.0
aF0.0
aF0.0
aa(lp12
F0.0
aF0.0
aF0.0
aF0.0
aa(lp13
F0.0
aF0.0
aF0.0
aF0.0
aa(lp14
F0.0
aF0.0
aF0.0
aF0.0
aa(lp15
F0.0
aF0.0
aF0.0
aF0.0
aa(lp16
F0.0
aF0.0
aF0.0
aF0.0
aa(lp17
F0.0
aF0.0
aF0.0
aF0.0
aa(lp18
F0.0
aF0.0
aF0.0
aF0.0
aa(lp19
F0.0
aF0.0
aF0.0
aF0.0
aa(lp20
F0.0
aF0.0
aF0.0
aF0.0
aa(lp21
F0.0
aF0.0
aF0.0
aF0.0
aa(lp22
F0.0
aF0.0
aF0.0
aF0.0
aa(lp23
F0.0
aF0.0
aF0.0
aF0.0
aa(lp24
F0.0
aF0.0
aF0.0
aF0.0
aa(lp25
F0.0
aF0.0
aF0.0
aF0.0
aa(lp26
F0.0
aF0.0
aF0.0
aF0.0
aa(lp27
F0.0
aF0.0
aF0.0
aF0.0
aa(lp28
F0.0
aF0.0
aF0.0
aF0.0
aa(lp29
F0.0
aF0.0
aF0.0
aF0.0
aa(lp30
F0.0
aF0.0
aF0.0
aF0.0
aa(lp31
F0.0
aF0.0
aF0.0
aF0.0
aa(lp32
F0.0
aF0.0
aF0.0
aF0.0
aa(lp33
F0.0
aF0.0
aF0.0
aF0.0
aa(lp34
F-0.1
aF-0.1
aF-0.1
aF0.0
aa(lp35
F0.0
aF0.0
aF0.0
aF0.0
aa(lp36
F0.0
aF0.0
aF0.0
aF0.0
aa(lp37
F0.0
aF0.0
aF0.0
aF0.0
aa(lp38
F-0.1
aF0.0
aF0.0
aF0.0
aa(lp39
F0.0
aF0.0
aF0.0
aF0.0
aa(lp40
F8.065259821947988e-08
aF0.0
aF0.0
aF0.0
aa(lp41
F0.0
aF0.0
aF9.042052400383911e-07
aF0.0
aa(lp42
F0.0
aF0.0
aF0.0
aF0.0
aa(lp43
F0.0
aF0.0
aF0.0
aF0.0
aa(lp44
F0.0
aF0.0
aF0.0
aF0.0
aa(lp45
F0.0
aF0.0
aF0.0
aF0.0
aa(lp46
F-0.1
aF0.0
aF0.0
aF0.0
aa(lp47
F-0.09
aF0.0
aF0.0
aF0.0
aa(lp48
F-0.19
aF-0.1
aF-0.21962000000000004
aF0.0
aa(lp49
F-0.1
aF-0.19
aF0.0
aF0.0
aa(lp50
F-0.1
aF-0.1
aF0.0
aF0.0
aa(lp51
F-0.1
aF0.0
aF0.0
aF0.0
aa(lp52
F0.0
aF0.0
aF-0.1
aF0.0
aa(lp53
F-0.1
aF-0.1
aF0.0
aF0.0
aa(lp54
F4.460206594555326e-05
aF0.0
aF0.0
aF0.0
aa(lp55
F0.0
aF0.0
aF0.0015148373597168624
aF0.0
aa(lp56
F0.0
aF0.0
aF0.0
aF0.0
aa(lp57
F0.0
aF0.0
aF0.0
aF0.0
aa(lp58
F0.0006197720572098148
aF0.0
aF0.0
aF0.0
aa(lp59
F-0.005904900000000001
aF0.0
aF0.012451220629345179
aF0.0
aa(lp60
F-0.54497359
aF-0.059049000000000004
aF-0.1164023742093461
aF-0.1162
aa(lp61
F-0.551
aF-0.1582659
aF-0.271
aF-0.19
aa(lp62
F-0.38
aF-0.28
aF-0.39620000000000005
aF-0.2962
aa(lp63
F-0.38
aF-0.56162
aF-0.30000000000000004
aF-0.1
aa(lp64
F-0.2
aF-0.38
aF-0.31800000000000006
aF-0.1
aa(lp65
F-0.1
aF-0.209
aF-0.2
aF0.0
aa(lp66
F0.02592153248462764
aF0.0
aF-0.25753122813420676
aF-0.1
aa(lp67
F-0.1
aF-0.46855900000000006
aF0.5717771357275785
aF0.0
aa(lp68
F0.0009619350302351968
aF0.0
aF0.0
aF0.0
aa(lp69
F0.0
aF4.022486563241921e-06
aF0.026163889684126515
aF0.0
aa(lp70
F0.0
aF0.0
aF0.0
aF0.0
aa(lp71
F0.0
aF0.0
aF0.0
aF0.0
aa(lp72
F0.0005048698426688825
aF0.005609664918543139
aF0.4031070290548209
aF0.0486304382454478
aa(lp73
F-0.00010159486867754879
aF0.08656121485865392
aF0.0336721715168808
aF0.0
aa(lp74
F-0.6125795110000001
aF-0.1
aF-0.001526065066006146
aF-0.0007809209223497475
aa(lp75
F-0.4790000000000001
aF-8.303247022147386e-05
aF-0.3613995721
aF0.0
aa(lp76
F-0.30000000000000004
aF-0.3971
aF-0.37000000000000005
aF-0.4700000000000001
aa(lp77
F-0.30000000000000004
aF-0.38
aF-0.30000000000000004
aF-0.38
aa(lp78
F-0.389
aF-0.30000000000000004
aF-0.2
aF-0.2
aa(lp79
F-0.1
aF-0.30000000000000004
aF-0.2
aF-0.38
aa(lp80
F1.3879702743489128
aF-0.2
aF0.2956960938348986
aF0.0
aa(lp81
F-0.02848470608161282
aF-0.19
aF4.576154877653527
aF0.012277014083225665
aa(lp82
F7.64272447015965e-06
aF0.0
aF1.93242949731019
aF0.0
aa(lp83
F3.9822616976095015e-06
aF3.6202379069177286e-07
aF0.3495707147124502
aF0.0002608307950032355
aa(lp84
F0.0
aF0.0
aF0.0
aF0.0
aa(lp85
F0.0
aF0.0
aF0.0
aF0.0
aa(lp86
F0.21142635473764854
aF0.28243282013216475
aF0.7320156292976904
aF0.07546087403970941
aa(lp87
F0.05696005291648425
aF0.5300433303176975
aF0.0
aF0.0
aa(lp88
F-0.55411307677
aF-0.079461
aF0.037102708533308854
aF-0.07092441
aa(lp89
F-0.2
aF-0.087565404155496
aF-0.30462439690000004
aF-0.40951000000000004
aa(lp90
F-0.30000000000000004
aF-0.4794525159609
aF-0.21800000000000003
aF-0.2
aa(lp91
F-0.2
aF-0.21794525159609002
aF-0.30000000000000004
aF-0.31800000000000006
aa(lp92
F-0.30000000000000004
aF-0.2
aF-0.2
aF-0.30000000000000004
aa(lp93
F0.004550189078682237
aF-0.2
aF4.342231
aF-0.2
aa(lp94
F5.711674573173165
aF-0.106013522
aF-0.19
aF0.4168519450367338
aa(lp95
F1.9408716890131812
aF1.2363305224241545
aF6.453612662609963
aF1.1335517688734225
aa(lp96
F0.18351834440893192
aF4.883433473518282
aF0.5649901133865702
aF0.009866753726947789
aa(lp97
F4.469429514713245e-05
aF0.28517560144004256
aF2.5629393050114873
aF0.0029866108033608585
aa(lp98
F0.0
aF0.0
aF0.0
aF0.0
aa(lp99
F0.0
aF0.0
aF0.0
aF0.0
aa(lp100
F0.8487581358348983
aF0.6181236835333479
aF0.4323423913672988
aF0.2613912666635193
aa(lp101
F0.29935382423224255
aF0.40319981833605734
aF0.8882186917730529
aF0.2991840964847369
aa(lp102
F-0.8112808571671001
aF0.587027617952824
aF-0.052166219951238234
aF-0.11699226095314692
aa(lp103
F-0.56072
aF-0.16288702762991158
aF-0.40951000000000004
aF-0.38222864110000004
aa(lp104
F-0.389
aF-0.20863900000000002
aF-0.209
aF-0.3062
aa(lp105
F-0.2
aF-0.2
aF-0.209
aF-0.30000000000000004
aa(lp106
F1.9
aF-0.30000000000000004
aF0.0
aF0.0
aa(lp107
F0.0
aF0.0
aF0.0
aF0.0
aa(lp108
F6.644916060922179
aF9.583245832050675
aF5.2413746905695335
aF4.122054447351727
aa(lp109
F5.901116479891868
aF7.426115381037769
aF5.94222214265034
aF5.797909388734322
aa(lp110
F2.083842888960137
aF6.417304843078028
aF3.101243151546312
aF1.7932895596527973
aa(lp111
F1.822903465619337
aF5.698778247905817
aF0.4872045420821087
aF0.37638117962847245
aa(lp112
F0.0
aF0.0
aF0.0
aF0.0
aa(lp113
F0.0
aF0.0
aF0.0
aF0.0
aa(lp114
F0.09710119988403813
aF0.1439888584428314
aF0.9083664630921319
aF0.18963217751473133
aa(lp115
F0.46288684328109697
aF0.4545760039157983
aF1.057160054238504
aF0.6415111968666597
aa(lp116
F-0.5514570970868456
aF0.891796450665862
aF-0.05369039875650988
aF-0.047450562375606437
aa(lp117
F-0.6878000000000001
aF0.22787739588112144
aF-0.1
aF-0.12693504979900003
aa(lp118
F-0.38
aF-0.19
aF-0.1970723882131042
aF-0.2
aa(lp119
F-0.48
aF-0.389
aF-0.270855510144147
aF-0.30000000000000004
aa(lp120
F-0.28
aF-0.41339000000000004
aF-0.06593496799721447
aF-0.11000000000000001
aa(lp121
F4.759309593018844
aF-0.542
aF0.05080799097590055
aF0.8200000000000001
aa(lp122
F5.907260449322932
aF2.490992414705057
aF1.107838743653553
aF3.9454647526637903
aa(lp123
F5.04138561654921
aF5.3191002055562
aF5.144487883904372
aF6.515264650843564
aa(lp124
F1.1489477560663657
aF3.445263000771604
aF0.7191429026829098
aF5.530021898107657
aa(lp125
F0.2514057198601549
aF0.6976965528277503
aF0.0367592571854017
aF4.205236964337895
aa(lp126
F0.0
aF0.0
aF0.0
aF0.0
aa(lp127
F0.0
aF0.0
aF0.0
aF0.0
aa(lp128
F1.1019612638156673
aF0.3568885707677224
aF0.11296641224032045
aF0.13173117428188147
aa(lp129
F0.35951218520789463
aF0.756628255530844
aF1.2001669058570446
aF0.5130390210136009
aa(lp130
F-0.7780089192235183
aF0.06573731275589885
aF-0.024841263727604423
aF0.6882533148501486
aa(lp131
F-0.2629
aF-0.003923174083047409
aF0.5656348553392396
aF-0.19
aa(lp132
F-0.27099999962726984
aF-0.1
aF0.7709912980018452
aF-0.21419616964339339
aa(lp133
F-0.4095098044006202
aF-0.1363219263017455
aF0.3620469603372438
aF-0.3690893376885017
aa(lp134
F0.3820271531660612
aF-0.18099999652455104
aF2.0382988719507154
aF-0.2
aa(lp135
F0.11046773594681347
aF-0.14614788307845372
aF3.5279800709003806
aF0.5302714015921947
aa(lp136
F1.0598923353583882
aF0.45534627441126196
aF2.0753113839163957
aF5.222719779291385
aa(lp137
F3.568573726851948
aF4.37733025755361
aF4.138012783307667
aF5.761141955643817
aa(lp138
F0.11922467882852797
aF1.3921686971094602
aF0.617812243223125
aF4.339874205073335
aa(lp139
F0.032132665743178454
aF0.11018533015995328
aF0.025289502856666767
aF1.8807753004661363
aa(lp140
F0.0
aF0.0
aF0.0
aF0.0
aa(lp141
F0.0
aF0.0
aF0.0
aF0.0
aa(lp142
F1.2650810241343982
aF0.0242574578512551
aF0.19253321883230967
aF0.006368734366220253
aa(lp143
F1.0822567868955504
aF0.7671720462448017
aF1.3865468923927107
aF0.7408260964529385
aa(lp144
F0.16016433101341832
aF0.10233473981008402
aF1.5845649799666413
aF0.19181571002707026
aa(lp145
F-0.05184450794981735
aF0.36264798353548855
aF1.743500765669163
aF-0.5990418766515301
aa(lp146
F1.8148527078571464
aF0.020183736636445883
aF0.14765006815084353
aF-0.20969198490101554
aa(lp147
F1.366831286011156
aF0.12674721789746993
aF2.357457627296465
aF0.008930058861306822
aa(lp148
F3.2644942151091927
aF0.23629744017877718
aF0.7958464410998232
aF-0.3620785045326873
aa(lp149
F4.027250205828931
aF2.9521920581962875
aF2.989458116471974
aF1.8813470169362092
aa(lp150
F4.687683777901941
aF3.3468147868257874
aF3.10912855423389
aF3.978321097563875
aa(lp151
F3.5714219875954236
aF3.964577197113896
aF3.414332566824601
aF5.284362487555516
aa(lp152
F0.010761415573505819
aF4.363739469886713
aF0.48035762342813876
aF1.223139930745226
aa(lp153
F0.00026908238334300927
aF0.00024285622415914516
aF0.010035775694884105
aF0.5831942370054349
aa(lp154
F0.0
aF0.0
aF0.0
aF0.0
aa(lp155
F0.0
aF0.0
aF0.0
aF0.0
aa(lp156
F1.368537255676998
aF0.9353352482981634
aF1.0074529129434209
aF0.8340873373402659
aa(lp157
F1.578444211357078
aF1.2189612837581616
aF1.181686972843066
aF1.2809919969809098
aa(lp158
F1.8495855603135813
aF1.3994861916348322
aF1.3711962630374606
aF1.372035140072716
aa(lp159
F2.1220990550245196
aF1.5286785660512163
aF1.3635148234422074
aF1.5063336225201365
aa(lp160
F2.408945928944325
aF1.7847358627627359
aF1.6845537188010222
aF1.4312849403293832
aa(lp161
F2.833173778282221
aF2.0450973127852152
aF1.8895372285155356
aF1.7965652008963973
aa(lp162
F3.2551418041356297
aF2.2424006121920312
aF2.2501941754498227
aF2.7668460946980824
aa(lp163
F3.0606994286919016
aF2.605496659236912
aF2.4684138309032995
aF3.679240444273197
aa(lp164
F0.9472905117860129
aF1.2396740593099493
aF0.415769702621805
aF4.020184733771975
aa(lp165
F0.10114760774986355
aF0.6504200120136063
aF0.0727834858055248
aF4.383337239474757
aa(lp166
F0.005671082283222403
aF0.0026490057982656297
aF4.4040089591356854e-05
aF1.3987625462535196
aa(lp167
F0.00023385560333138994
aF0.00020447458709080214
aF7.774283461370052e-06
aF0.08917442905151989
aa(lp168
F0.0
aF0.0
aF0.0
aF0.0
aa(lp169
F0.0
aF0.0
aF0.0
aF0.0
aa(lp170
F0.4534728831960663
aF0.5281742779117293
aF0.6034156936893411
aF1.2208653836836274
aa(lp171
F0.14813062948342595
aF0.5316930386503774
aF0.23296010021166136
aF1.4494943451711229
aa(lp172
F0.00045585855899197013
aF0.23528159743668497
aF0.25185034110354676
aF1.579448379344415
aa(lp173
F0.18166676853364172
aF0.2813153881973314
aF0.2961468317700883
aF1.7951910203665316
aa(lp174
F2.1252997445369286
aF0.16645771526979486
aF0.45311396357122513
aF0.38422073444744687
aa(lp175
F0.5287851837091623
aF0.2700096907367
aF0.3624244208020716
aF2.406793047286084
aa(lp176
F0.3834171418412764
aF0.2631662249542336
aF0.5305198702122269
aF2.779716713598171
aa(lp177
F0.1733394444374208
aF0.131777726213491
aF0.3884400797399649
aF2.968039569269001
aa(lp178
F5.93924465010842e-10
aF0.03127741408148877
aF0.0
aF1.6778144144067273
aa(lp179
F2.6321381392596403e-06
aF0.0014368693270349463
aF0.011090682545549903
aF1.000628299965916
aa(lp180
F0.0
aF1.882237888800122e-07
aF0.0
aF0.10767650533182584
aa(lp181
F2.8673523742301195e-06
aF1.1402919879018568e-07
aF5.561727835001251e-08
aF0.0007749345984988543
aa(lp182
F0.0
aF0.0
aF0.0
aF0.0
aa(lp183
F0.0
aF0.0
aF0.0
aF0.0
aa(lp184
F0.0
aF0.0
aF0.0
aF0.0
aa(lp185
F0.0
aF0.0
aF0.0
aF0.0
aa(lp186
F0.0
aF0.0
aF0.0
aF0.0
aa(lp187
F0.0
aF0.0
aF0.0
aF0.0
aa(lp188
F0.0
aF0.0
aF0.0
aF0.0
aa(lp189
F0.0
aF0.0
aF0.0
aF0.0
aa(lp190
F0.0
aF0.0
aF0.0
aF0.0
aa(lp191
F0.0
aF0.0
aF0.0
aF0.0
aa(lp192
F0.0
aF0.0
aF0.0
aF0.0
aa(lp193
F0.0
aF0.0
aF0.0
aF0.0
aa(lp194
F0.0
aF0.0
aF0.0
aF0.0
aa(lp195
F0.0
aF0.0
aF0.0
aF0.0
aa(lp196
F0.0
aF0.0
aF0.0
aF0.0
aa.