(lp0
(lp1
F0.0
aF0.0
aF0.0
aF0.0
aa(lp2
F0.0
aF0.0
aF0.0
aF0.0
aa(lp3
F0.0
aF0.0
aF0.0
aF0.0
aa(lp4
F0.0
aF0.0
aF0.0
aF0.0
aa(lp5
F0.0
aF0.0
aF0.0
aF0.0
aa(lp6
F0.0
aF0.0
aF0.0
aF0.0
aa(lp7
F0.0
aF0.0
aF0.0
aF0.0
aa(lp8
F0.0
aF0.0
aF0.0
aF0.0
aa(lp9
F0.0
aF0.0
aF0.0
aF0.0
aa(lp10
F0.0
aF0.0
aF0.0
aF0.0
aa(lp11
F0.0
aF0.0
aF0.0
aF0.0
aa(lp12
F0.0
aF0.0
aF0.0
aF0.0
aa(lp13
F0.0
aF0.0
aF0.0
aF0.0
aa(lp14
F0.0
aF0.0
aF0.0
aF0.0
aa(lp15
F0.0
aF0.0
aF0.0
aF0.0
aa(lp16
F0.0
aF0.0
aF0.0
aF0.0
aa(lp17
F0.0
aF0.0
aF0.0
aF0.0
aa(lp18
F0.0
aF0.0
aF0.0
aF0.0
aa(lp19
F1.414481332234678e-13
aF0.0
aF0.0
aF0.0
aa(lp20
F7.404337169269057e-12
aF0.0
aF0.0
aF0.0
aa(lp21
F3.365796233493465e-10
aF9.819688475928203e-15
aF0.0
aF3.8397782245552755e-14
aa(lp22
F7.819337153102797e-09
aF1.42588964482724e-14
aF0.0
aF0.0
aa(lp23
F1.1963974155787498e-07
aF0.0
aF6.495940312262085e-11
aF1.584321827585822e-12
aa(lp24
F1.8646971981643046e-06
aF1.7603575862064689e-12
aF0.0
aF8.491359230600204e-10
aa(lp25
F2.1892965958500253e-05
aF8.491359230600204e-10
aF0.0
aF4.4973624431531806e-07
aa(lp26
F0.00013933339870315434
aF1.1438320898027737e-10
aF2.647324484967721e-06
aF0.0
aa(lp27
F2.312408470425853e-05
aF1.5792115641720826e-05
aF0.000532906672574381
aF2.37942251660587e-05
aa(lp28
F0.0
aF0.0
aF0.0
aF0.0
aa(lp29
F0.0
aF0.0
aF0.0
aF0.0
aa(lp30
F0.0
aF0.0
aF0.0
aF0.0
aa(lp31
F1.77749977234519e-18
aF0.0
aF0.0
aF0.0
aa(lp32
F9.084998836430971e-17
aF0.0
aF0.0
aF0.0
aa(lp33
F-0.09
aF-0.1
aF-0.1
aF2.9120516292864857e-15
aa(lp34
F0.0
aF0.0
aF-0.1
aF0.0
aa(lp35
F0.0
aF0.0
aF0.0
aF0.0
aa(lp36
F7.110946000183991e-11
aF0.0
aF-0.28
aF0.0
aa(lp37
F-0.1
aF-0.07289999927981318
aF-0.271
aF1.1468668378163538e-09
aa(lp38
F-0.09
aF-0.08999999992889055
aF-0.34390000000000004
aF8.002075821992359e-09
aa(lp39
F3.651058502161996e-07
aF0.0
aF0.0
aF0.0
aa(lp40
F5.778116059515369e-05
aF0.0
aF0.0
aF0.0
aa(lp41
F8.619496879329878e-07
aF0.0008310014225253736
aF0.0028907003677928647
aF4.57088648913735e-06
aa(lp42
F0.0
aF0.0
aF0.0
aF0.0
aa(lp43
F0.0
aF0.0
aF0.0
aF0.0
aa(lp44
F0.0
aF0.0
aF0.0
aF0.0
aa(lp45
F0.0
aF0.0
aF0.0
aF0.0
aa(lp46
F-0.4164163603775908
aF-0.1
aF-0.11689908414573061
aF-0.003874204889999999
aa(lp47
F-0.19
aF-0.00038742048900000013
aF-0.22978
aF0.0
aa(lp48
F-0.19
aF-0.19
aF-0.2171
aF0.0
aa(lp49
F-0.1
aF-0.1
aF-0.42292361
aF0.0
aa(lp50
F-0.19
aF-0.30881000000000003
aF-0.209
aF-0.1
aa(lp51
F-0.19
aF-0.1
aF-0.28
aF0.0
aa(lp52
F-0.0005545221495944948
aF-0.09
aF-0.45225377763221264
aF0.0
aa(lp53
F-0.06561
aF-0.6802034171671001
aF-0.00988721760445609
aF-0.002495316813648707
aa(lp54
F4.032465526487401e-06
aF-0.0005012091442643516
aF0.0
aF0.0
aa(lp55
F1.5636192867705286e-08
aF2.7315706388553252e-06
aF0.018707628961945028
aF2.1117244874147873e-05
aa(lp56
F0.0
aF0.0
aF0.0
aF0.0
aa(lp57
F0.0
aF0.0
aF0.0
aF0.0
aa(lp58
F0.0
aF0.0
aF0.0
aF0.0
aa(lp59
F-0.013897973997090002
aF-0.0047829690000000015
aF-0.002770633752878611
aF0.0
aa(lp60
F-0.42580000000000007
aF-0.14254782879482614
aF-0.08459571462556591
aF-0.1520963375287861
aa(lp61
F-1.0787538890000001
aF-0.29729
aF-0.30381681790000004
aF-0.34390000000000004
aa(lp62
F-0.7236929000000001
aF-0.43390000000000006
aF-0.6400118
aF-0.47062361
aa(lp63
F-0.57701
aF-0.498
aF-0.5880000000000001
aF-0.43051249
aa(lp64
F-0.42149
aF-0.429251249
aF-0.5880000000000001
aF-0.43390000000000006
aa(lp65
F-0.38973409753771926
aF-0.38
aF-0.38
aF-0.55352
aa(lp66
F-0.12461745842769914
aF-0.7130000000000001
aF-0.409897420489
aF-0.6756042128985502
aa(lp67
F-0.03078481946503022
aF-0.8171453199575036
aF-0.00888889978277696
aF-0.208039930561443
aa(lp68
F-0.004202410327551844
aF-0.024667750746537154
aF-0.003420535497381001
aF1.2665316222841285e-10
aa(lp69
F0.0033890520197697206
aF0.0
aF0.07101476225837947
aF0.0011097065956284858
aa(lp70
F0.0
aF0.0
aF0.0
aF0.0
aa(lp71
F0.0
aF0.0
aF0.0
aF0.0
aa(lp72
F-0.0002674769990533884
aF0.016083420723757662
aF0.44467746418350906
aF0.0
aa(lp73
F-0.008064990520720756
aF0.009633646631050053
aF-0.0016959827679953769
aF-0.001921069212782266
aa(lp74
F-0.6805478734659131
aF-0.14786664066262395
aF-0.019018739000900255
aF-0.10889803575821341
aa(lp75
F-0.7463000000000001
aF-0.12379433386499507
aF-0.3648240690512835
aF-0.28
aa(lp76
F-0.8472000000000002
aF-0.6471826478386431
aF-0.6230000000000001
aF-0.7202900000000001
aa(lp77
F-0.48
aF-0.6234320000000001
aF-0.5880000000000001
aF-0.40672361
aa(lp78
F-0.389
aF-0.30000000000000004
aF-0.38261
aF-0.227
aa(lp79
F-0.19060889601874575
aF-0.30000000000000004
aF-0.38
aF-0.21872
aa(lp80
F0.1199457495499347
aF-0.2
aF-0.10254938648332707
aF-0.3947637976480057
aa(lp81
F-0.10642386971904975
aF-0.5480119781536463
aF1.653792046231545
aF-0.049437627592522744
aa(lp82
F0.004966436063546746
aF-0.010536184013967194
aF-7.477156230211579e-05
aF0.0
aa(lp83
F0.0010919662792397084
aF0.0001640944749711403
aF0.2690372352800324
aF0.0003144306985792666
aa(lp84
F0.0
aF0.0
aF0.0
aF0.0
aa(lp85
F0.0
aF0.0
aF0.0
aF0.0
aa(lp86
F0.21410358418862763
aF0.5386153195449879
aF1.0295484308879008
aF0.11726079671916581
aa(lp87
F-0.00427075004428015
aF0.07174793511665696
aF0.5298110883149908
aF-0.0011750048482164247
aa(lp88
F-0.912249029317641
aF-0.01189368797706811
aF-0.032279475861997066
aF-0.1330868846667762
aa(lp89
F-1.332615970234359
aF-0.2247355445164556
aF-0.227
aF-0.2832138676491772
aa(lp90
F-0.5700000000000001
aF-0.4930460914928759
aF-0.7534722823820681
aF-0.7292000000000001
aa(lp91
F-0.38
aF-0.2
aF-0.30261000000000005
aF-0.327
aa(lp92
F-0.2
aF-0.2
aF-0.029000000000000005
aF-0.5880000000000001
aa(lp93
F-0.31450635721000003
aF-0.2
aF2.71
aF-0.2
aa(lp94
F-0.055880602165039546
aF-0.49412000000000006
aF7.16504887595651
aF-0.4616962647056009
aa(lp95
F0.5450774431619337
aF-0.524410406373546
aF5.115700792705718
aF0.08983283569764551
aa(lp96
F-0.0010685058519372531
aF0.019802369390971002
aF0.8645182988606547
aF-0.0005061722437223763
aa(lp97
F0.008288898984041488
aF0.03243663196997447
aF1.1313485280401565
aF0.0002451351350199364
aa(lp98
F0.0
aF0.0
aF0.0
aF0.0
aa(lp99
F0.0
aF0.0
aF0.0
aF0.0
aa(lp100
F0.42159278558371743
aF0.6811923028599332
aF1.1612449227082156
aF0.43304701416461655
aa(lp101
F-0.014721621900628708
aF0.9941724611314486
aF0.034117725363417686
aF0.031579298253965875
aa(lp102
F-0.8661421566391546
aF-0.19229489911249334
aF-0.05943779772133938
aF-0.11313153365737522
aa(lp103
F-0.7557122000000001
aF-0.19575587277179077
aF-0.5461047635126113
aF-0.2769049
aa(lp104
F-0.5700000000000001
aF-0.6012567756496288
aF-0.5766851000000001
aF-0.6178898
aa(lp105
F-0.11000000000000001
aF-0.2
aF-0.5834090000000001
aF-0.32610000000000006
aa(lp106
F2.71
aF-0.8179590000000001
aF-0.2
aF0.0
aa(lp107
F0.0
aF0.0
aF0.0
aF0.0
aa(lp108
F6.302569505610281
aF9.880921895719279
aF6.465750993703208
aF4.787768811366964
aa(lp109
F3.46361900463335
aF7.390289645133152
aF2.6406514482421914
aF2.2580682280574
aa(lp110
F0.22113746426358954
aF6.207418368572764
aF1.2984942261490433
aF0.134896364449522
aa(lp111
F0.06851574086298604
aF3.6302002135036937
aF0.13207508243279587
aF0.08736307004199018
aa(lp112
F0.0
aF0.0
aF0.0
aF0.0
aa(lp113
F0.0
aF0.0
aF0.0
aF0.0
aa(lp114
F0.7031608745092814
aF0.7391905298230901
aF1.3026871004921061
aF0.7289929821142792
aa(lp115
F0.21778790502059275
aF0.11967315369558536
aF1.2069084796870813
aF0.16319694165176535
aa(lp116
F-0.5800034899
aF0.3420873302977868
aF-0.08910904934606724
aF-0.25554501645824157
aa(lp117
F-0.8012900000000001
aF-0.28424900000000003
aF-0.46855900000000006
aF-0.4711282775092927
aa(lp118
F-0.398
aF-0.4228661
aF-0.36100000000000004
aF-0.6151505346023183
aa(lp119
F-0.38
aF-0.398
aF-0.37213783960881663
aF-0.30000000000000004
aa(lp120
F0.802280867022497
aF-0.4064311854392558
aF-0.1260863066780347
aF0.017800000000000003
aa(lp121
F5.979930248675563
aF-0.2
aF0.9881582310155017
aF3.439
aa(lp122
F5.680039703778391
aF4.639002587825737
aF5.792868308987584
aF7.713192605525258
aa(lp123
F1.0664700898076973
aF0.5770461169628377
aF0.42091396408237935
aF6.445802671858949
aa(lp124
F0.7332072233008718
aF1.2109590900479434
aF0.5766620076881384
aF4.686617380665569
aa(lp125
F0.20102514221813766
aF2.7257416707410878
aF0.0011733216594107686
aF0.028611756156199788
aa(lp126
F0.0
aF0.0
aF0.0
aF0.0
aa(lp127
F0.0
aF0.0
aF0.0
aF0.0
aa(lp128
F0.8760890521420254
aF1.0309301446452315
aF1.447105549320682
aF0.9868396563898894
aa(lp129
F-0.008238115799495406
aF0.12357942143799297
aF1.5358167825166558
aF0.13240471980133067
aa(lp130
F-0.6513215599000001
aF-0.0899999016786258
aF0.29339427021658904
aF-0.116200386605171
aa(lp131
F-0.297559
aF-0.0005314410000000001
aF0.1913952183585218
aF-0.3579049
aa(lp132
F-0.19
aF-0.18999987188083284
aF0.9355295668762169
aF-0.2
aa(lp133
F-0.36823366446386635
aF-0.271
aF0.8211422273638354
aF-0.2
aa(lp134
F-0.14723333006599323
aF-0.38025816778636945
aF2.069781791162866
aF-0.54461
aa(lp135
F5.270726416414996
aF-0.5092687369298866
aF0.9379899777109384
aF1.5466258859931599
aa(lp136
F4.850891843147349
aF4.108012406732747
aF5.006677492962796
aF6.808727421592015
aa(lp137
F0.002748906471822601
aF5.70990022366975
aF0.9378483293834627
aF2.393644022629486
aa(lp138
F0.19184604089450974
aF0.0
aF0.0
aF0.0
aa(lp139
F0.00719951316134469
aF4.530723006340312e-05
aF0.0008980715063989927
aF1.302803773293818
aa(lp140
F0.0
aF0.0
aF0.0
aF0.0
aa(lp141
F0.0
aF0.0
aF0.0
aF0.0
aa(lp142
F1.6469714511895388
aF0.9253448963370194
aF0.9516905966975082
aF0.7663954059179457
aa(lp143
F1.4548075550176292
aF1.0427591802514562
aF1.881359138486837
aF0.8682215204844584
aa(lp144
F1.0742622365994396
aF0.2561144265073386
aF2.0641998185494215
aF-0.008200584646042695
aa(lp145
F0.20273677742515334
aF0.3381569818110242
aF2.1278376207907934
aF-0.439777478376729
aa(lp146
F0.058627351689007304
aF0.42908473342334197
aF2.085601810510891
aF-0.3372310376085122
aa(lp147
F0.16026145842511602
aF0.5315870143002154
aF3.063669072609854
aF-0.6384998062782061
aa(lp148
F1.9456859504162578
aF0.98342924785415
aF3.492115409575159
aF-0.11964103901383782
aa(lp149
F4.933104987643776
aF2.8509228644115394
aF3.43764905546196
aF3.6741736466695136
aa(lp150
F4.428473439510608
aF4.362528559700558
aF4.166559941106408
aF6.096350087432097
aa(lp151
F0.003276368944795818
aF5.123128178376443
aF0.20304156266364742
aF0.3927685888463124
aa(lp152
F0.032502037704411166
aF1.1298443701328116e-06
aF0.0
aF7.9807190699474e-05
aa(lp153
F2.0579313856708463e-05
aF3.162270208770595e-05
aF1.027314883174133e-06
aF0.33143161290188067
aa(lp154
F0.0
aF0.0
aF0.0
aF0.0
aa(lp155
F0.0
aF0.0
aF0.0
aF0.0
aa(lp156
F1.7334969761585641
aF0.9495468543625866
aF0.9083977725707989
aF0.2523876651623036
aa(lp157
F2.1081096767936742
aF1.346128559170622
aF1.289393401706489
aF1.3191910072504316
aa(lp158
F2.298766148270828
aF1.8060550588749094
aF1.7634389280782938
aF1.533721234638895
aa(lp159
F2.5729093653115918
aF2.0783016667568788
aF1.897441891919192
aF1.8964167783343042
aa(lp160
F2.9731772000299252
aF2.1310692704424827
aF2.333893506999651
aF1.9246095481668895
aa(lp161
F3.434777705755476
aF2.5108647658600924
aF2.633353905090657
aF2.309921291385978
aa(lp162
F3.9923904497135076
aF2.970007707116598
aF2.812129632631966
aF2.8825263154430494
aa(lp163
F4.594621263725495
aF3.468469614658017
aF3.190059603322077
aF4.228629294374749
aa(lp164
F1.0018064048740578
aF2.7277563083628107
aF1.1146224828790967
aF5.254625364453389
aa(lp165
F8.311646303256223e-07
aF3.4473552847297495
aF0.0
aF0.0
aa(lp166
F2.2805726624676913e-06
aF0.0
aF0.0
aF0.0004441938423687463
aa(lp167
F1.5929043628680583e-05
aF3.966350869318694e-06
aF3.396379158814042e-07
aF0.022495064959816534
aa(lp168
F0.0
aF0.0
aF0.0
aF0.0
aa(lp169
F0.0
aF0.0
aF0.0
aF0.0
aa(lp170
F1.6605750757300601
aF0.8657897472332555
aF0.6123508280494794
aF1.007559234046587
aa(lp171
F1.8683164216146053
aF0.32292065099084866
aF0.725265268052597
aF1.258862443200251
aa(lp172
F1.0376019660451754
aF0.9593257094043738
aF1.2887383945022397
aF2.114490465990592
aa(lp173
F0.7516241250739679
aF0.5604179749230382
aF0.525275434578873
aF2.4067170149630175
aa(lp174
F2.724897309925191
aF0.06337913484118199
aF0.5169565527870769
aF1.2604882725652369
aa(lp175
F1.1049852396549045
aF0.394629097255828
aF0.9079872729480666
aF3.0510901528874816
aa(lp176
F1.452322726026605
aF0.7824056734508194
aF2.242243403579995e-05
aF3.4110594895622404
aa(lp177
F0.28835383231352796
aF0.5602188976765885
aF0.9082826727409259
aF3.804101787604234
aa(lp178
F9.368509471488932e-09
aF2.774359840040076
aF0.25271474287404727
aF0.2836452271187482
aa(lp179
F0.21299917021399103
aF3.1280339176249424e-11
aF1.4658786272040183e-09
aF0.0
aa(lp180
F1.1274030771863922e-06
aF1.7442181778670556e-08
aF7.337363510478259e-09
aF0.0
aa(lp181
F4.311747912085908e-07
aF4.169844553784992e-08
aF3.8805731208773174e-08
aF1.0997841690791942e-05
aa(lp182
F0.0
aF0.0
aF0.0
aF0.0
aa(lp183
F0.0
aF0.0
aF0.0
aF0.0
aa(lp184
F0.0
aF0.0
aF0.0
aF0.0
aa(lp185
F0.0
aF0.0
aF0.0
aF0.0
aa(lp186
F0.0
aF0.0
aF0.0
aF0.0
aa(lp187
F0.0
aF0.0
aF0.0
aF0.0
aa(lp188
F0.0
aF0.0
aF0.0
aF0.0
aa(lp189
F0.0
aF0.0
aF0.0
aF0.0
aa(lp190
F0.0
aF0.0
aF0.0
aF0.0
aa(lp191
F0.0
aF0.0
aF0.0
aF0.0
aa(lp192
F0.0
aF0.0
aF0.0
aF0.0
aa(lp193
F0.0
aF0.0
aF0.0
aF0.0
aa(lp194
F0.0
aF0.0
aF0.0
aF0.0
aa(lp195
F0.0
aF0.0
aF0.0
aF0.0
aa(lp196
F0.0
aF0.0
aF0.0
aF0.0
aa.