(lp0
(lp1
F0.0
aF0.0
aF0.0
aF0.0
aa(lp2
F0.0
aF0.0
aF0.0
aF0.0
aa(lp3
F0.0
aF0.0
aF0.0
aF0.0
aa(lp4
F0.0
aF0.0
aF0.0
aF0.0
aa(lp5
F0.0
aF0.0
aF0.0
aF0.0
aa(lp6
F0.0
aF0.0
aF0.0
aF0.0
aa(lp7
F0.0
aF0.0
aF0.0
aF0.0
aa(lp8
F0.0
aF0.0
aF0.0
aF0.0
aa(lp9
F0.0
aF0.0
aF0.0
aF0.0
aa(lp10
F0.0
aF0.0
aF0.0
aF0.0
aa(lp11
F0.0
aF0.0
aF0.0
aF0.0
aa(lp12
F0.0
aF0.0
aF0.0
aF0.0
aa(lp13
F0.0
aF0.0
aF0.0
aF0.0
aa(lp14
F0.0
aF0.0
aF0.0
aF0.0
aa(lp15
F0.0
aF0.0
aF0.0
aF0.0
aa(lp16
F0.0
aF0.0
aF0.0
aF0.0
aa(lp17
F0.11884314061312687
aF0.0
aF0.0
aF0.0
aa(lp18
F0.7086450206387752
aF0.0
aF0.0
aF0.0
aa(lp19
F0.018090317399535656
aF0.0
aF2.3270604935720804
aF0.002861998880914287
aa(lp20
F0.0
aF0.05469110329093019
aF2.5557789483207323
aF0.15630806940027284
aa(lp21
F0.024378570000000002
aF0.0
aF2.427347617525595
aF0.05351526280004975
aa(lp22
F0.49218154184862917
aF0.0
aF0.0
aF0.00024275700000000005
aa(lp23
F2.7224823422480506
aF0.0026973000000000006
aF0.0
aF0.0
aa(lp24
F5.02628264331204
aF0.29553387085108734
aF0.0
aF0.14650673614067666
aa(lp25
F7.9699093223944955
aF0.0
aF0.0
aF0.6954190909392245
aa(lp26
F8.70100302269299
aF0.7620348027839641
aF1.9416097688178269
aF0.3963420000000001
aa(lp27
F0.0
aF0.0
aF0.0
aF0.0
aa(lp28
F0.0
aF0.0
aF0.0
aF0.0
aa(lp29
F0.0
aF0.0
aF0.0
aF0.0
aa(lp30
F0.008439370461069469
aF0.0
aF0.0
aF0.0
aa(lp31
F2.369339604208159
aF0.12317426778963234
aF0.12193416593473592
aF0.012396339137243816
aa(lp32
F2.8888276058569344
aF0.06893455906438291
aF0.026803819726443377
aF0.3207122085686423
aa(lp33
F3.052937361386058
aF0.7959452621796478
aF-0.21728195765040806
aF0.920334731221865
aa(lp34
F3.6224399577828614
aF0.402034264141082
aF-0.05483634238239717
aF0.27267933833809777
aa(lp35
F4.406447031490327
aF0.2984161729786151
aF0.07826956760750814
aF0.1535107629668926
aa(lp36
F4.811126820049195
aF-0.08245807540881418
aF-0.16307914131801834
aF0.0
aa(lp37
F5.45379785141988
aF0.6271763205678639
aF0.085810362863668
aF0.3992588157357818
aa(lp38
F6.060806014265564
aF0.8322352573965293
aF0.8045883480570011
aF1.2903190347927709
aa(lp39
F6.88569948144769
aF1.1703441329840145
aF1.4116073611881512
aF2.722536954885401
aa(lp40
F7.146362586597214
aF3.9492284683525387
aF2.441142316045034
aF4.53867964209293
aa(lp41
F7.950236929342657
aF7.103421313966802
aF7.749204689536482
aF8.468666932567537
aa(lp42
F0.0
aF0.0
aF0.0
aF0.0
aa(lp43
F0.0
aF0.0
aF0.0
aF0.0
aa(lp44
F1.2503100507162839
aF0.04422073131709919
aF0.0
aF5.339047905963138e-07
aa(lp45
F-0.07777948201285446
aF0.21172506029842536
aF0.21649305353620657
aF1.9308731400659052
aa(lp46
F-0.04700070410090207
aF0.2539269821544206
aF-0.23408163316016967
aF2.414911947017266
aa(lp47
F-0.1
aF-0.1
aF-0.3414336039005878
aF1.815225770550902
aa(lp48
F-0.3234938631493657
aF-0.1
aF-0.2171
aF2.192756667093807
aa(lp49
F0.0008933274021875603
aF-0.1
aF-0.209
aF1.7110344981945442
aa(lp50
F-0.1898929845719182
aF-0.1
aF-0.209
aF3.2019071470983045
aa(lp51
F0.4703485844737476
aF-0.1
aF-0.0999995451444072
aF1.2191918042610408
aa(lp52
F1.9019151332717978
aF-0.06648951883477364
aF-0.08359492166748313
aF0.5344621926079659
aa(lp53
F4.895275556859268
aF0.3685669467261141
aF0.40645539947961745
aF0.0
aa(lp54
F6.392430599754055
aF0.8853540169993777
aF1.4614702423603227
aF0.0
aa(lp55
F6.34059561465954
aF6.127206750319021
aF6.1628349756948495
aF7.290163010986081
aa(lp56
F0.0
aF0.0
aF0.0
aF0.0
aa(lp57
F0.0
aF0.0
aF0.0
aF0.0
aa(lp58
F-0.008022134891002956
aF0.09573354534482684
aF0.07734301922752689
aF1.1642396681060598
aa(lp59
F-0.0837860094332368
aF0.17324007940851682
aF0.043799394876236734
aF1.6948619740150193
aa(lp60
F-0.3075409
aF0.8066916153853386
aF-0.13115082123099814
aF-0.15324926660996993
aa(lp61
F-0.42715100000000006
aF-0.15801534953106738
aF-0.489325117329117
aF-0.38295100000000004
aa(lp62
F-0.7130000000000001
aF-0.59402
aF-0.641009
aF-0.39135526064779785
aa(lp63
F-0.38
aF-0.398
aF-0.5960618168612186
aF-0.22735131257534907
aa(lp64
F-0.3576710848440247
aF-0.398
aF-0.5789998782963566
aF-0.3989575742902427
aa(lp65
F-0.0896608705730011
aF-0.08704641391934517
aF-0.19006993798317942
aF-0.0504446962068574
aa(lp66
F0.4335311464087453
aF0.0
aF-0.09833185195747196
aF0.0
aa(lp67
F1.8887546355885054
aF0.0
aF0.3545851976010075
aF0.0
aa(lp68
F4.555545618964705
aF0.9410690895752325
aF1.124222634771408
aF2.638134735541981
aa(lp69
F5.105546779443175
aF4.531677492792043
aF4.604802090685685
aF5.957949442260456
aa(lp70
F0.0
aF0.0
aF0.0
aF0.0
aa(lp71
F0.0
aF0.0
aF0.0
aF0.0
aa(lp72
F-0.08558338324112964
aF0.155364469531997
aF0.014078642391518745
aF1.0580469968964519
aa(lp73
F-0.7218841635537954
aF-0.042643905235343324
aF0.029561135780622007
aF0.4484249426660399
aa(lp74
F-0.9499652834057928
aF-0.16207205618863132
aF-0.3968814713589832
aF-0.37902594026160846
aa(lp75
F-1.1682612299088666
aF-1.164977290620286
aF-1.4294614904801082
aF-1.228995747001895
aa(lp76
F-1.375021528678664
aF-1.312740474491083
aF-1.1969876556929278
aF-1.1263592
aa(lp77
F-1.0108649436956403
aF-0.82684082
aF-0.8089636519851539
aF-0.8735235429500736
aa(lp78
F-0.4604993743960031
aF-0.6148200000000001
aF-0.6318849391888661
aF-0.4606181686121845
aa(lp79
F-0.21950937983179417
aF-0.2
aF-0.09822439356512798
aF0.0
aa(lp80
F0.21664764169077566
aF0.0
aF0.0
aF0.0
aa(lp81
F0.00031579100569203435
aF0.0
aF0.0
aF1.3605395470048336
aa(lp82
F3.9335376979182826
aF0.8303563244082004
aF0.8664381194122528
aF0.025050151486400225
aa(lp83
F4.129338904794807
aF3.7072915022179287
aF3.7110850609150603
aF4.815481309338416
aa(lp84
F0.0
aF0.0
aF0.0
aF0.0
aa(lp85
F0.0
aF0.0
aF0.0
aF0.0
aa(lp86
F-0.08026992101570424
aF0.006188569994212901
aF0.03841692370962881
aF0.752713406929893
aa(lp87
F-0.33359918301444647
aF-0.19651857912898807
aF-0.03161088231391495
aF-0.10554346894993631
aa(lp88
F-0.8376532555560099
aF-0.12698694170952637
aF-0.5154301512540997
aF-0.717329200322609
aa(lp89
F-1.0018399652641383
aF-0.5481663813041363
aF-0.777319393281258
aF-0.9248939367041
aa(lp90
F-1.2988341338243943
aF-1.3070681595422593
aF-1.4972493900000001
aF-1.4232602943695642
aa(lp91
F-0.8718500000000001
aF-0.7418393389482465
aF-0.7487390000000002
aF-1.0083900000000001
aa(lp92
F-0.6886145824383815
aF-0.8131800000000001
aF-0.5754563855010328
aF-0.5372980931067766
aa(lp93
F-0.18705069526982385
aF-0.2
aF-0.18742012060309923
aF-0.209
aa(lp94
F0.2190996426444411
aF-0.1
aF0.0
aF-0.1
aa(lp95
F0.23995417047119014
aF-0.18999991235507951
aF0.8017362825652647
aF0.3540341919431469
aa(lp96
F3.0326129947107847
aF0.24528409983524718
aF0.755687919859183
aF1.0346359101543199
aa(lp97
F3.1390612410554692
aF3.086405098446573
aF2.9929240806358592
aF3.736237712555551
aa(lp98
F0.0
aF0.0
aF0.0
aF0.0
aa(lp99
F0.0
aF0.0
aF0.0
aF0.0
aa(lp100
F-0.021245450972737286
aF0.008751945507208071
aF0.23110242178057896
aF0.0304745623496114
aa(lp101
F-0.35839217986150806
aF0.0736878842477374
aF-0.11169915021783158
aF-0.1028621996528102
aa(lp102
F-0.42601280102418543
aF-0.20497851067332903
aF-0.2968970208479444
aF-0.5639811169466727
aa(lp103
F-1.0901357736268202
aF-1.0546528353160658
aF-1.09504581990447
aF-1.0634414932082528
aa(lp104
F-0.514119
aF-0.7253954859959773
aF-0.7010429433576147
aF-0.7415887625487236
aa(lp105
F-0.8277658208778956
aF-1.0752888
aF-0.9594816324448145
aF-0.9236089986511447
aa(lp106
F-0.344157416413438
aF-0.5961000000000001
aF-0.341146493506564
aF-0.41240126430346874
aa(lp107
F-0.16318469230640534
aF-0.46099992111957155
aF-0.25761101023763466
aF-0.2663787893556758
aa(lp108
F-0.1
aF-0.1
aF0.1728392742865001
aF0.0
aa(lp109
F0.002143379653554672
aF0.0
aF0.0
aF0.8320572971795878
aa(lp110
F0.27503323077675795
aF0.0
aF0.4527447868423463
aF2.985338048855399
aa(lp111
F2.574358107353898
aF2.597661813535587
aF2.4399081535594713
aF3.0252470434741974
aa(lp112
F0.0
aF0.0
aF0.0
aF0.0
aa(lp113
F0.0
aF0.0
aF0.0
aF0.0
aa(lp114
F-0.09671593402682868
aF0.07435259468215405
aF0.3271424778341969
aF0.010619672163245155
aa(lp115
F-0.2265995357740244
aF0.23441117996061905
aF-0.008060787742047305
aF-0.07955348935333716
aa(lp116
F-0.6922561297429017
aF-0.2112915405054399
aF-0.4312982906228185
aF-0.4875942917669498
aa(lp117
F-0.5740554205308855
aF-0.42941869308839553
aF-0.5652638141018513
aF-0.5431042100000001
aa(lp118
F-0.7202898584571578
aF-0.6909192340420109
aF-0.7143166879208679
aF-0.7148532000000001
aa(lp119
F-0.5295542053088549
aF-0.5843
aF-0.417048898550622
aF-0.5720509896505029
aa(lp120
F-0.1731457736760061
aF-0.209
aF-0.2666060654308588
aF-0.22519958997211448
aa(lp121
F-0.013950009076848527
aF0.0
aF0.0
aF-0.1
aa(lp122
F0.051564041650366994
aF0.0
aF0.0
aF0.0
aa(lp123
F1.1959870734460967
aF0.02677968102259001
aF0.0
aF0.0
aa(lp124
F1.8809340893671531
aF0.18229916139140603
aF0.43503778404483623
aF0.7368309824513299
aa(lp125
F2.1087008204265985
aF1.9668100671088193
aF1.9219471827476418
aF2.40417718611867
aa(lp126
F0.0
aF0.0
aF0.0
aF0.0
aa(lp127
F0.0
aF0.0
aF0.0
aF0.0
aa(lp128
F0.015887469133883454
aF0.012380718239559357
aF0.3571150914844049
aF0.04368546523348673
aa(lp129
F-0.1899999997017614
aF0.019449901784695724
aF0.4336270773683062
aF-0.09300572136539191
aa(lp130
F-0.33281145507216514
aF-0.0895839831743657
aF0.3913791024660491
aF-0.022836777601472836
aa(lp131
F-0.2912104131275637
aF-0.1
aF0.29751322896190535
aF-0.4222880012894409
aa(lp132
F-0.2750431714985262
aF-0.2781657899048807
aF-0.016059603423616592
aF-0.4408290212765465
aa(lp133
F-0.2875644175230464
aF-0.199
aF-0.20600785302408028
aF-0.21800000000000003
aa(lp134
F-0.06049566267085468
aF-0.28220859275351035
aF-0.23266027983376852
aF-0.3946941041469668
aa(lp135
F0.4937069283709957
aF0.0
aF0.0
aF0.0
aa(lp136
F0.775630773559688
aF0.0
aF0.10157807697437274
aF0.0
aa(lp137
F1.5068696506713828
aF0.0
aF0.0
aF0.0
aa(lp138
F1.490887786823508
aF0.7235823453157021
aF0.3958522050816877
aF0.5827824947445972
aa(lp139
F1.6490233300615202
aF1.5729927787138032
aF1.6074707789685614
aF1.915247309408323
aa(lp140
F0.0
aF0.0
aF0.0
aF0.0
aa(lp141
F0.0
aF0.0
aF0.0
aF0.0
aa(lp142
F0.41065081874029336
aF0.0852642274819449
aF0.0
aF0.02408753947348113
aa(lp143
F0.4710732801039062
aF0.056217322946492926
aF0.08493644786121876
aF0.12422445027499252
aa(lp144
F0.15327780280080427
aF0.08012077086624511
aF0.5628917066359804
aF0.06834639530630504
aa(lp145
F0.003011654187372023
aF0.16634451277128853
aF0.4611642522598431
aF-0.3874922948049183
aa(lp146
F0.17038987774565043
aF0.4373778767645792
aF0.10997657151440231
aF-0.43235605128165616
aa(lp147
F0.00954819507617953
aF0.2842265102208843
aF0.04559851553766006
aF-0.369991526976618
aa(lp148
F0.17371982348266884
aF0.08425465468162795
aF0.7661778705684678
aF-0.23630764544627159
aa(lp149
F1.0327999630898628
aF-0.09241298561637279
aF0.0
aF0.0
aa(lp150
F1.148224916833948
aF0.04696715074898355
aF0.21816001928598905
aF0.0922019296564432
aa(lp151
F1.2126852620620991
aF0.5394993702190307
aF0.6549731091198846
aF0.7210280100980142
aa(lp152
F1.3042766141782538
aF0.8620162700099837
aF0.7944500207038151
aF0.876993373532388
aa(lp153
F1.3346943870279722
aF1.2692623312115556
aF1.2756613785966677
aF1.526982592556667
aa(lp154
F0.0
aF0.0
aF0.0
aF0.0
aa(lp155
F0.0
aF0.0
aF0.0
aF0.0
aa(lp156
F0.5018412869342145
aF0.16394228277423317
aF0.11639618508494173
aF0.14545773193303407
aa(lp157
F0.5650082615205017
aF0.15489668863717687
aF0.11791332719153345
aF0.09582610445347076
aa(lp158
F0.6165738138675136
aF0.3223946644442489
aF0.21175999992453295
aF0.2967844787222907
aa(lp159
F0.674351529113545
aF0.39160627175298557
aF0.30230062630977966
aF0.2167006109045929
aa(lp160
F0.7550811188473875
aF0.48472158417497396
aF0.2449554631018328
aF0.16598909835123316
aa(lp161
F0.8330561319840932
aF0.43577212631566725
aF0.24823101894378866
aF0.19621681754809647
aa(lp162
F0.9209155982246281
aF0.5383547089872426
aF0.22436783954077294
aF0.5528305022396011
aa(lp163
F0.9375195783212887
aF0.6613872727442134
aF0.5094943615928258
aF0.5119891500332272
aa(lp164
F0.6647578821615729
aF0.5793621148880028
aF0.3934731180755626
aF1.0702180488413622
aa(lp165
F0.9745676111746234
aF0.5596946355924235
aF0.25836763275171776
aF0.6424468712296608
aa(lp166
F1.0525906150497883
aF0.6772975143677468
aF0.42509742243945436
aF0.47280275035918584
aa(lp167
F0.9198199982230504
aF0.6903420701075268
aF0.7524472866287631
aF1.217547401044732
aa(lp168
F0.0
aF0.0
aF0.0
aF0.0
aa(lp169
F0.0
aF0.0
aF0.0
aF0.0
aa(lp170
F0.4841898905864945
aF0.20827928836168375
aF0.16992254589507164
aF0.20571135667803975
aa(lp171
F0.08138646100919886
aF0.07366569339681653
aF0.12790624042509036
aF0.52552215265238
aa(lp172
F0.10723968675438242
aF0.09665516213905916
aF0.08921824555782644
aF0.5482481868985103
aa(lp173
F0.04240613832958804
aF0.04315476241028372
aF0.08140912017685903
aF0.5701191140832377
aa(lp174
F0.013706672351234976
aF0.0003839311475138625
aF1.0363264168661473e-05
aF0.622548328373569
aa(lp175
F0.6178980752894787
aF0.0
aF0.038787894838703055
aF0.06311896268939306
aa(lp176
F2.0049172416926775e-07
aF0.05362966715510101
aF0.0762048310918044
aF0.7487583140015829
aa(lp177
F0.0
aF0.051367652488736835
aF0.0
aF0.870460979536436
aa(lp178
F0.047211473312796765
aF1.4667804368447546e-09
aF0.012743079128072213
aF0.8185417695477716
aa(lp179
F0.6932756635762063
aF0.0
aF0.0
aF0.0
aa(lp180
F0.15603028830232027
aF0.0
aF0.0
aF0.9558924034762236
aa(lp181
F0.04913091649591374
aF7.8126648649081e-09
aF0.012768726528439626
aF1.0447898220895961
aa(lp182
F0.0
aF0.0
aF0.0
aF0.0
aa(lp183
F0.0
aF0.0
aF0.0
aF0.0
aa(lp184
F0.0
aF0.0
aF0.0
aF0.0
aa(lp185
F0.0
aF0.0
aF0.0
aF0.0
aa(lp186
F0.0
aF0.0
aF0.0
aF0.0
aa(lp187
F0.0
aF0.0
aF0.0
aF0.0
aa(lp188
F0.0
aF0.0
aF0.0
aF0.0
aa(lp189
F0.0
aF0.0
aF0.0
aF0.0
aa(lp190
F0.0
aF0.0
aF0.0
aF0.0
aa(lp191
F0.0
aF0.0
aF0.0
aF0.0
aa(lp192
F0.0
aF0.0
aF0.0
aF0.0
aa(lp193
F0.0
aF0.0
aF0.0
aF0.0
aa(lp194
F0.0
aF0.0
aF0.0
aF0.0
aa(lp195
F0.0
aF0.0
aF0.0
aF0.0
aa(lp196
F0.0
aF0.0
aF0.0
aF0.0
aa.