(lp0
(lp1
F0.0
aF0.0
aF0.0
aF0.0
aa(lp2
F0.0
aF0.0
aF0.0
aF0.0
aa(lp3
F0.0
aF0.0
aF0.0
aF0.0
aa(lp4
F0.0
aF0.0
aF0.0
aF0.0
aa(lp5
F0.0
aF0.0
aF0.0
aF0.0
aa(lp6
F0.0
aF0.0
aF0.0
aF0.0
aa(lp7
F0.0
aF0.0
aF0.0
aF0.0
aa(lp8
F0.0
aF0.0
aF0.0
aF0.0
aa(lp9
F0.0
aF0.0
aF0.0
aF0.0
aa(lp10
F0.0
aF0.0
aF0.0
aF0.0
aa(lp11
F0.0
aF0.0
aF0.0
aF0.0
aa(lp12
F0.0
aF0.0
aF0.0
aF0.0
aa(lp13
F0.0
aF0.0
aF0.0
aF0.0
aa(lp14
F0.0
aF0.0
aF0.0
aF0.0
aa(lp15
F0.0
aF0.0
aF0.0
aF0.0
aa(lp16
F0.0
aF0.0
aF0.0
aF0.0
aa(lp17
F0.0
aF0.0
aF0.0
aF0.0
aa(lp18
F0.4083857439438735
aF0.0
aF0.0
aF0.0
aa(lp19
F0.7806818030299352
aF0.0
aF0.12448401012033634
aF0.10109191569434083
aa(lp20
F1.2209733605654876
aF0.05705504181416976
aF0.09154894726534517
aF0.0071515879399733535
aa(lp21
F1.9048046390138318
aF0.47503316501711695
aF0.026864621848761757
aF0.0
aa(lp22
F2.6387513534050835
aF0.03855291591727869
aF0.0
aF0.019864705243388583
aa(lp23
F0.1838423925153406
aF0.4993357558388124
aF3.931002502799516
aF0.0
aa(lp24
F0.09000000000000001
aF0.24058941232332742
aF4.209065284845469
aF0.39754108363012297
aa(lp25
F2.682171
aF0.0
aF0.0
aF0.0
aa(lp26
F4.088539
aF0.0
aF0.7660342350950385
aF0.24317100000000003
aa(lp27
F0.0
aF0.0
aF0.0
aF0.0
aa(lp28
F0.0
aF0.0
aF0.0
aF0.0
aa(lp29
F0.0
aF0.0
aF0.0
aF0.0
aa(lp30
F0.006867152481337663
aF0.0
aF0.0
aF0.0
aa(lp31
F0.0714754204304728
aF0.0
aF0.0003044887072073779
aF0.0
aa(lp32
F-0.03240268444000258
aF-0.007941864791712947
aF-0.0999879429379888
aF0.18127222559300551
aa(lp33
F-0.06320201869780792
aF-0.0006017790389599118
aF-0.1027425795327658
aF0.33721982715982857
aa(lp34
F1.5672387079331411
aF0.04311089911100181
aF-0.10517905610405587
aF0.05799352620245501
aa(lp35
F-0.06142855367324293
aF0.5782761020930332
aF-0.18489157951962337
aF0.0
aa(lp36
F3.6582328042124703
aF0.11521876065143946
aF0.0
aF0.001489123379374259
aa(lp37
F5.125863764577316
aF0.24026330367562698
aF0.0
aF0.06523680995771335
aa(lp38
F5.860817539672569
aF0.8349915035020856
aF0.5646547442867355
aF0.2439
aa(lp39
F7.128915058116272
aF0.0
aF0.0
aF0.17019
aa(lp40
F7.401614283055618
aF2.6561304634130694
aF4.67333091508795
aF2.8791716590000003
aa(lp41
F8.055144246299623
aF7.28696851487367
aF7.283657625530568
aF9.297097990505177
aa(lp42
F0.0
aF0.0
aF0.0
aF0.0
aa(lp43
F0.0
aF0.0
aF0.0
aF0.0
aa(lp44
F-0.011608951584538127
aF-0.003979684256941329
aF-0.0049384721382417195
aF0.0056757826326171695
aa(lp45
F-0.1082240029472352
aF-0.08999925664606746
aF-0.003984404293549631
aF0.035810927243571544
aa(lp46
F-0.25345897144887886
aF-0.23384863613392956
aF-0.2127376661888249
aF0.01980170405669779
aa(lp47
F-0.1
aF-0.1
aF-0.10900000000000001
aF0.1973413491443899
aa(lp48
F-0.2
aF-0.30800000000000005
aF-0.6041459
aF0.23379095957056056
aa(lp49
F-0.1
aF-0.1
aF-0.398
aF0.5563750135569214
aa(lp50
F-0.1
aF-0.19
aF-0.2
aF0.4944564769373929
aa(lp51
F0.19124982356294928
aF0.0
aF0.0
aF0.0
aa(lp52
F1.0233334165303973
aF0.0
aF0.0
aF0.0
aa(lp53
F3.7016255391524036
aF0.0
aF0.0
aF0.6420819620009235
aa(lp54
F5.937066905353303
aF1.0296132682863681
aF1.4528351091169907
aF2.1175849960462854
aa(lp55
F6.646838716273907
aF5.813078923737278
aF5.706105137716802
aF7.887406624338804
aa(lp56
F0.0
aF0.0
aF0.0
aF0.0
aa(lp57
F0.0
aF0.0
aF0.0
aF0.0
aa(lp58
F-0.012797860421610002
aF-0.0014023700226091834
aF-0.00301637930419062
aF0.0032120389945275584
aa(lp59
F-0.28310867165385223
aF-0.124328194743909
aF-0.1719124140236104
aF-0.046346012010674106
aa(lp60
F-0.8283987728453964
aF-0.05470580179855758
aF-0.12294655248001461
aF-0.1872988082994212
aa(lp61
F-0.6013227240762677
aF-0.6539755023935726
aF-0.9804763222751001
aF-0.6105944207407962
aa(lp62
F-0.600801237333275
aF-0.5802882369748791
aF-0.7529893333330578
aF-0.5236426221308058
aa(lp63
F-0.542
aF-0.5927752393166501
aF-0.507
aF-0.5030609300589104
aa(lp64
F-0.389
aF-0.2
aF-0.2
aF-0.2664822572219566
aa(lp65
F-0.2
aF-0.3070882204634125
aF-0.30913915032752626
aF-0.1
aa(lp66
F0.0
aF0.0
aF0.10052538814713388
aF0.0
aa(lp67
F1.8822658546686735
aF0.0
aF0.0
aF0.0
aa(lp68
F0.0
aF1.4150179079885041
aF3.891248867272927
aF1.7694103631818925
aa(lp69
F5.148053912468426
aF4.348890371650993
aF4.697498413077916
aF6.2099034672798155
aa(lp70
F0.0
aF0.0
aF0.0
aF0.0
aa(lp71
F0.0
aF0.0
aF0.0
aF0.0
aa(lp72
F-0.044724822527991995
aF-0.030201947981896838
aF-0.004517967704669522
aF-0.023853545104220945
aa(lp73
F-0.29292739859600225
aF-0.19207421094273402
aF-0.17706425095195052
aF-0.07659807136137145
aa(lp74
F-0.563087
aF-0.320257734223767
aF-0.510754783059938
aF-0.47491789802576195
aa(lp75
F-0.845716905250224
aF-0.7612966686474594
aF-0.8523008839201701
aF-0.9146412823294605
aa(lp76
F-1.3931050444112054
aF-1.142539683218343
aF-1.2771419534267632
aF-1.2679503988789036
aa(lp77
F-1.0646504441120517
aF-0.89103
aF-0.9379200000000001
aF-1.0517675793992352
aa(lp78
F-0.23993136584132185
aF-0.30000000000000004
aF-0.42383897990980507
aF-0.3971
aa(lp79
F-0.260557666668624
aF-0.49881
aF-0.2215690402746292
aF-0.28
aa(lp80
F0.4087600428952789
aF0.0
aF0.0
aF0.0
aa(lp81
F2.296612723376003
aF-0.011846400221630594
aF0.30608490878172545
aF0.0
aa(lp82
F3.927084191761917
aF1.157546966892128
aF2.2839333859980098
aF1.8265803754456555
aa(lp83
F4.112045498180181
aF3.934816353917505
aF3.782183622002238
aF4.997009556817791
aa(lp84
F0.0
aF0.0
aF0.0
aF0.0
aa(lp85
F0.0
aF0.0
aF0.0
aF0.0
aa(lp86
F-0.06444082550053741
aF0.008773278205685827
aF0.164544967670945
aF-0.045516100950045595
aa(lp87
F-0.34174945490601366
aF0.010926436694234994
aF-0.18743052513835376
aF-0.16946174283776977
aa(lp88
F-0.738582742907438
aF-0.1958699110019813
aF-0.6169648596449909
aF-0.45468427169114467
aa(lp89
F-0.9843349608191884
aF-0.7394701110082469
aF-0.9749456221858088
aF-0.9053627577850384
aa(lp90
F-1.3681768770205711
aF-1.337496362778034
aF-1.424838784012878
aF-1.3200185891240772
aa(lp91
F-0.8340014062919044
aF-0.8804599912918825
aF-0.7887899997519172
aF-1.071195574603156
aa(lp92
F-0.6612233943192114
aF-0.7008934240736925
aF-0.6627791205779262
aF-0.6230000000000001
aa(lp93
F-0.38797638894426045
aF-0.22690997767756121
aF-0.2
aF-0.3667106169321416
aa(lp94
F0.8327374467304456
aF0.0
aF0.0
aF0.0
aa(lp95
F1.6865128282438036
aF0.0
aF0.0
aF0.0
aa(lp96
F0.5397010289093418
aF0.9656237607625195
aF0.8088211029690772
aF3.8539956184518593
aa(lp97
F3.26444318064278
aF3.2300407976260375
aF3.0829288644955604
aF3.9854322257191743
aa(lp98
F0.0
aF0.0
aF0.0
aF0.0
aa(lp99
F0.0
aF0.0
aF0.0
aF0.0
aa(lp100
F-0.11291268989463477
aF0.08426803243960128
aF0.2992398911887383
aF-0.017011074908306754
aa(lp101
F-0.5983206608248081
aF-0.019270391029106628
aF0.20721985389110303
aF-0.1970475129488118
aa(lp102
F-0.7283934459656459
aF-0.3694250817362942
aF-0.5359245359487375
aF-0.596535174967715
aa(lp103
F-1.5513275409546068
aF-1.352026275356237
aF-1.436439489932934
aF-1.3350112493267499
aa(lp104
F-1.3665743548756946
aF-1.2787696127172052
aF-1.1888125548697728
aF-1.2473031190282668
aa(lp105
F-0.844195968717027
aF-0.9863356487318695
aF-0.8902449559693045
aF-0.7715000000000001
aa(lp106
F-0.5999498960793894
aF-0.5663
aF-0.4748403861513474
aF-0.5540336011422208
aa(lp107
F-0.0695879939871984
aF-0.23330000000000004
aF0.0
aF0.0
aa(lp108
F0.424079281104061
aF0.0
aF0.0
aF0.0
aa(lp109
F1.068309675024456
aF-0.09487381497765607
aF0.0
aF0.0
aa(lp110
F2.350191953025082
aF0.0
aF0.8102573096557697
aF0.0
aa(lp111
F2.5804309866207706
aF2.371908023243316
aF2.444334080521979
aF3.085146702387711
aa(lp112
F0.0
aF0.0
aF0.0
aF0.0
aa(lp113
F0.0
aF0.0
aF0.0
aF0.0
aa(lp114
F-0.022060119917930165
aF0.03936782551689341
aF0.35892242876771513
aF3.690626845570706e-05
aa(lp115
F-0.4178586765872222
aF0.07948884111200162
aF0.36265855642011113
aF-0.0776337286849892
aa(lp116
F-0.9668341999748873
aF-0.0012957662245412505
aF-0.49890264161085324
aF-1.0788175222883316
aa(lp117
F-0.839975698
aF-0.6113983243534263
aF-0.9845986010226483
aF-1.0206420831337268
aa(lp118
F-1.0069284887167618
aF-0.8948245821026846
aF-0.849504492841062
aF-1.1415070287481925
aa(lp119
F-0.568009916680719
aF-0.4960099699819674
aF-0.5240788154387761
aF-0.507
aa(lp120
F-0.2471245237622425
aF-0.398
aF-0.3489336061135889
aF-0.40519998590105977
aa(lp121
F0.012583091908761609
aF-0.21709421389346673
aF0.0
aF0.0
aa(lp122
F-0.03094606900630127
aF-0.1
aF0.0739386085284746
aF0.0
aa(lp123
F1.593705232047025e-05
aF0.0
aF0.0
aF0.7495990555587941
aa(lp124
F0.5483767381661524
aF0.4052330372360628
aF1.5642991920129234
aF0.8192942326196303
aa(lp125
F2.0137860488320594
aF1.747471085814594
aF1.7875003825168008
aF2.4296184844767827
aa(lp126
F0.0
aF0.0
aF0.0
aF0.0
aa(lp127
F0.0
aF0.0
aF0.0
aF0.0
aa(lp128
F0.00014706119280782416
aF-0.006894749430901025
aF0.39210904292743504
aF0.050212594975960534
aa(lp129
F-0.15656404372507357
aF0.1283717392769166
aF0.433665522331434
aF0.06844723882583288
aa(lp130
F-0.47031878472699795
aF0.053741103479702505
aF0.46613017904447523
aF-0.8881995230300763
aa(lp131
F-0.2816819396032261
aF-0.18792123611058742
aF0.09415583358949231
aF-0.447005525474511
aa(lp132
F-0.4251596487287231
aF-0.32684487178835475
aF0.26206907852258676
aF-0.4218908122249338
aa(lp133
F-0.1
aF-0.15787276644893175
aF0.17687688653617575
aF0.0
aa(lp134
F-0.18032121171731808
aF-0.1
aF0.024841175639344237
aF-0.20899999999817012
aa(lp135
F-0.05064072529942979
aF-0.19213422702495941
aF0.1932327507561186
aF0.0
aa(lp136
F-0.07844698655175421
aF-0.09761829874949268
aF0.28526414777987885
aF0.0
aa(lp137
F1.3963293865235802
aF0.0
aF0.0
aF0.0
aa(lp138
F1.0662580193923874
aF0.9311014789293933
aF0.9342621119374296
aF1.768003397815995
aa(lp139
F1.5068139583490334
aF1.5479478763842356
aF1.5379626586847486
aF2.03194707448901
aa(lp140
F0.0
aF0.0
aF0.0
aF0.0
aa(lp141
F0.0
aF0.0
aF0.0
aF0.0
aa(lp142
F0.1309540456899693
aF0.04553074972405413
aF0.47865979073920895
aF0.005134319486276914
aa(lp143
F0.4548839292862124
aF0.07103586406520938
aF0.07986141593867775
aF0.010394082392660662
aa(lp144
F0.5533873044314795
aF0.11037651182383941
aF0.07770550619241556
aF-0.39456402590453843
aa(lp145
F0.06811776158692008
aF0.1823104510003269
aF0.6619731968156352
aF-0.4171409215132526
aa(lp146
F0.028692523533418425
aF0.0059041243707127905
aF0.6115651062815748
aF-0.1851315651963355
aa(lp147
F-0.02202020223030768
aF0.07023862109812117
aF0.7742924472999501
aF-0.09999898548617328
aa(lp148
F0.10735674193697388
aF-0.03376775861047171
aF0.7970058411201193
aF-0.1
aa(lp149
F0.9600009083681401
aF0.06568921755918992
aF0.17322039748431534
aF-0.0922535438129928
aa(lp150
F1.1129966071779156
aF0.0
aF0.1747314090581877
aF0.01994071838746984
aa(lp151
F0.3659221238517049
aF0.2585705952837429
aF1.134600762473383
aF0.3225748199051884
aa(lp152
F0.8382044398145062
aF0.6984305334749855
aF0.733443151753451
aF1.6303312357735678
aa(lp153
F1.2365147459102277
aF1.2678531488330462
aF1.2000788048923188
aF1.3984959164674633
aa(lp154
F0.0
aF0.0
aF0.0
aF0.0
aa(lp155
F0.0
aF0.0
aF0.0
aF0.0
aa(lp156
F0.5708583222720908
aF0.25676724451057986
aF0.1778227269666778
aF0.1867411209643983
aa(lp157
F0.6164308478371521
aF0.053408777106037086
aF0.09738369143966794
aF0.16576594559159588
aa(lp158
F0.7028724380724845
aF0.09490639153761787
aF0.07717593341080362
aF0.10756253317532381
aa(lp159
F0.7223582906976069
aF0.14363137322884584
aF0.16480415298365914
aF0.23214578879631953
aa(lp160
F0.8271620028911467
aF0.2121467084907961
aF0.3985183559194131
aF0.43741673803850145
aa(lp161
F0.8804144149065144
aF0.5720844090465267
aF0.3948315242936605
aF0.3002125174484651
aa(lp162
F0.9649422731924349
aF0.47434585451813105
aF0.47403516904790566
aF0.3996277500483687
aa(lp163
F1.0285929961081963
aF0.6218696263844558
aF0.5416562042283743
aF0.6676663633880179
aa(lp164
F1.1111032735979194
aF0.5515005735214338
aF0.7212395224765217
aF0.6990665987887209
aa(lp165
F1.165169600753341
aF0.6464760891451211
aF0.713073347238575
aF0.6141094400668549
aa(lp166
F0.8724313070094541
aF0.8755266466385052
aF0.7249600481378337
aF1.2860905490131591
aa(lp167
F0.8707650338222127
aF1.0255475716177782
aF0.844796460902062
aF1.1868888445746038
aa(lp168
F0.0
aF0.0
aF0.0
aF0.0
aa(lp169
F0.0
aF0.0
aF0.0
aF0.0
aa(lp170
F0.5110407696964807
aF0.20844002740029455
aF0.10798879439985941
aF0.30766901148017345
aa(lp171
F0.5691216957583378
aF0.06357210443245168
aF0.05137505068710367
aF0.0
aa(lp172
F0.6336573343256637
aF0.07738479418280358
aF0.05029771827585283
aF0.15603823342167078
aa(lp173
F0.6720853357167321
aF0.1052448929233121
aF0.018798523445109093
aF0.1170488917637593
aa(lp174
F0.7333575029872894
aF0.10229387680013968
aF0.06580044939495402
aF0.13998516402682348
aa(lp175
F0.8111553188802754
aF0.06242443310241261
aF0.24108357161586094
aF0.201268057784104
aa(lp176
F0.8673398978528492
aF0.1719662163023415
aF0.30713065635404896
aF0.4373053337456289
aa(lp177
F0.3621063124059207
aF0.30073351209976396
aF0.3673838645622467
aF0.9858770927084501
aa(lp178
F0.28165855907211235
aF0.3421510264062122
aF0.17321867605112876
aF1.031895799027902
aa(lp179
F0.1750314009094251
aF0.06866574948785471
aF0.11153010293051609
aF1.105517352020778
aa(lp180
F6.322136698962896e-06
aF0.06211613697573918
aF0.04280234498787586
aF1.087962501913378
aa(lp181
F0.17573656649370423
aF0.20769762747554854
aF0.2860095510144743
aF0.9880186311020058
aa(lp182
F0.0
aF0.0
aF0.0
aF0.0
aa(lp183
F0.0
aF0.0
aF0.0
aF0.0
aa(lp184
F0.0
aF0.0
aF0.0
aF0.0
aa(lp185
F0.0
aF0.0
aF0.0
aF0.0
aa(lp186
F0.0
aF0.0
aF0.0
aF0.0
aa(lp187
F0.0
aF0.0
aF0.0
aF0.0
aa(lp188
F0.0
aF0.0
aF0.0
aF0.0
aa(lp189
F0.0
aF0.0
aF0.0
aF0.0
aa(lp190
F0.0
aF0.0
aF0.0
aF0.0
aa(lp191
F0.0
aF0.0
aF0.0
aF0.0
aa(lp192
F0.0
aF0.0
aF0.0
aF0.0
aa(lp193
F0.0
aF0.0
aF0.0
aF0.0
aa(lp194
F0.0
aF0.0
aF0.0
aF0.0
aa(lp195
F0.0
aF0.0
aF0.0
aF0.0
aa(lp196
F0.0
aF0.0
aF0.0
aF0.0
aa.