(lp0
(lp1
F0.0
aF0.0
aF0.0
aF0.0
aa(lp2
F0.0
aF0.0
aF0.0
aF0.0
aa(lp3
F0.0
aF0.0
aF0.0
aF0.0
aa(lp4
F0.0
aF0.0
aF0.0
aF0.0
aa(lp5
F0.0
aF0.0
aF0.0
aF0.0
aa(lp6
F0.0
aF0.0
aF0.0
aF0.0
aa(lp7
F0.0
aF0.0
aF0.0
aF0.0
aa(lp8
F0.0
aF0.0
aF0.0
aF0.0
aa(lp9
F0.0
aF0.0
aF0.0
aF0.0
aa(lp10
F0.0
aF0.0
aF0.0
aF0.0
aa(lp11
F0.0
aF0.0
aF0.0
aF0.0
aa(lp12
F0.0
aF0.0
aF0.0
aF0.0
aa(lp13
F0.0
aF0.0
aF0.0
aF0.0
aa(lp14
F0.0
aF0.0
aF0.0
aF0.0
aa(lp15
F0.0
aF0.0
aF0.0
aF0.0
aa(lp16
F0.0
aF0.0
aF0.0
aF0.0
aa(lp17
F0.07365566855439763
aF0.0
aF0.0
aF0.0
aa(lp18
F0.6090307536416509
aF0.022905975732271017
aF0.0
aF0.0
aa(lp19
F0.0
aF0.08192504184042204
aF1.0223144864687348
aF0.08790129456330091
aa(lp20
F0.0037987814990566365
aF0.0
aF1.408486765848162
aF0.0022597926505350577
aa(lp21
F0.5311539736113058
aF0.0
aF0.0
aF0.0
aa(lp22
F0.038782002194912395
aF0.0
aF0.621771678108425
aF0.0
aa(lp23
F3.2521406209236625
aF0.5545370089117072
aF0.13047644553138318
aF0.0
aa(lp24
F4.1794028868516735
aF0.0
aF0.0
aF0.0
aa(lp25
F7.705678877648653
aF0.0
aF0.7915319000263695
aF0.0
aa(lp26
F8.715376556588946
aF0.0
aF0.8402431835230288
aF1.3475140629401958
aa(lp27
F0.0
aF0.0
aF0.0
aF0.0
aa(lp28
F0.0
aF0.0
aF0.0
aF0.0
aa(lp29
F0.0
aF0.0
aF0.0
aF0.0
aa(lp30
F0.0004570094157151229
aF7.266035044696864e-07
aF0.0
aF0.0
aa(lp31
F0.2092262214412798
aF0.0005755016446089922
aF0.004028520525662154
aF0.0
aa(lp32
F0.06563220073427734
aF0.012237432388287464
aF-0.08042805512775526
aF0.41951092309391713
aa(lp33
F-0.06569422526222718
aF-0.07617192825366717
aF-0.20673317076233133
aF0.8048750527324008
aa(lp34
F1.83150445885821
aF0.0
aF-0.09964149509513415
aF0.014573040080211225
aa(lp35
F2.2307993008606126
aF0.14993321582241906
aF0.0
aF0.0
aa(lp36
F3.0661734840318715
aF0.5560824768537262
aF0.14027030635728502
aF0.1423331258793639
aa(lp37
F0.30100281492635533
aF2.1581234345164417
aF0.3678343631103817
aF0.9177504296928425
aa(lp38
F6.0382153332530315
aF0.3359015824543975
aF0.7072042380084692
aF1.7121469087263885
aa(lp39
F7.224994878501349
aF0.0
aF0.7756959865091235
aF0.33134688075129487
aa(lp40
F7.216059712585531
aF3.362496143801244
aF1.7848896912528085
aF2.4935662584585256
aa(lp41
F7.6626273220217005
aF7.208646858706645
aF7.087576715310799
aF9.10521493281441
aa(lp42
F0.0
aF0.0
aF0.0
aF0.0
aa(lp43
F0.0
aF0.0
aF0.0
aF0.0
aa(lp44
F-0.006740937153637389
aF0.0
aF0.0
aF0.004530136376769312
aa(lp45
F-0.22164814054913615
aF-0.0804564500829673
aF-0.010062690172147736
aF0.15049056712346093
aa(lp46
F-0.40621281352785077
aF-0.1344322493162596
aF-0.34099353534751614
aF0.17818237410626553
aa(lp47
F-0.08244480215224512
aF-0.1
aF-0.6680132516692258
aF0.5139428583281387
aa(lp48
F-0.1
aF-0.1
aF-0.209
aF0.31987138064339005
aa(lp49
F-0.1
aF-0.1
aF-0.2
aF0.4788110367357395
aa(lp50
F-0.16233557024050096
aF-0.1
aF-0.28636504138045576
aF0.6913274057052662
aa(lp51
F-0.08105695116529157
aF-0.1
aF-0.209
aF1.6392107965836853
aa(lp52
F-0.02433133875642933
aF-0.18810569511652916
aF-0.09279448642521328
aF2.8855417388924574
aa(lp53
F5.34351235987413
aF0.3470284175907967
aF0.31603830446509884
aF0.0
aa(lp54
F2.678151217890925
aF4.347393341679055
aF1.6057158405617111
aF1.5543474827801935
aa(lp55
F6.1695410250510445
aF5.347023315749444
aF5.709483220862646
aF7.018629067205358
aa(lp56
F0.0
aF0.0
aF0.0
aF0.0
aa(lp57
F0.0
aF0.0
aF0.0
aF0.0
aa(lp58
F-0.02829929716327117
aF-0.0256801245955599
aF-0.013470148411054324
aF0.025185999245508028
aa(lp59
F-0.17647838234095514
aF-0.009261969825671547
aF-0.052177682020237114
aF-0.10439003386294263
aa(lp60
F-0.5704357686960074
aF-0.4316921755553688
aF-0.3787217395392276
aF-0.21705416994768706
aa(lp61
F-0.7735079
aF-0.4128141682164969
aF-0.5581684656413248
aF-0.5301199815765538
aa(lp62
F-0.8621526694611293
aF-1.0831076646860773
aF-0.8505375416783404
aF-0.7531530839483754
aa(lp63
F-0.6762
aF-0.5954054083948376
aF-0.6375
aF-0.5298027079147545
aa(lp64
F-0.3927917359917482
aF-0.42043610000000003
aF-0.498
aF-0.2721207012502349
aa(lp65
F0.29119717580458704
aF-0.3763650413804558
aF-0.22448158798745402
aF-0.1
aa(lp66
F1.2027196281399593
aF0.0
aF0.0
aF0.4238834309331764
aa(lp67
F3.6269691386895895
aF0.008244766532596337
aF0.1781406644699564
aF0.35219793132708577
aa(lp68
F4.4658838433401185
aF1.4743923388280655
aF1.6929911440658627
aF1.6658802526944827
aa(lp69
F4.993285185254784
aF4.9271476488671935
aF4.595814365442036
aF5.666377837209552
aa(lp70
F0.0
aF0.0
aF0.0
aF0.0
aa(lp71
F0.0
aF0.0
aF0.0
aF0.0
aa(lp72
F-0.05496238438470606
aF-0.028975275564264127
aF-0.014593353642847496
aF-0.006879830293788157
aa(lp73
F-0.38265490060320706
aF-0.06178797149373727
aF-0.12471685702803473
aF-0.13409140652480875
aa(lp74
F-0.5123002083580237
aF-0.14902226750570913
aF-0.4283902699511937
aF-0.29711831358040086
aa(lp75
F-1.240325282005403
aF-1.1176547289493424
aF-1.1420267326847946
aF-1.183837405853751
aa(lp76
F-1.278052450159069
aF-1.1966876282594305
aF-1.1290639529345288
aF-1.1784797193105643
aa(lp77
F-1.124614501590691
aF-1.126864186783403
aF-1.119882702
aF-1.0175690000000002
aa(lp78
F-0.4700000000000001
aF-0.6187800000000001
aF-0.5656063023604039
aF-0.38
aa(lp79
F0.21879861570327727
aF-0.38859329914622
aF-0.1
aF-0.1737249518328589
aa(lp80
F0.6959515354624397
aF0.0
aF0.0
aF0.0
aa(lp81
F3.333457307115696
aF0.4111689085517116
aF0.0
aF0.5808180850593283
aa(lp82
F1.8405160921593728
aF2.865083485936238
aF0.941248043484459
aF1.33126753723805
aa(lp83
F3.773522385019403
aF3.4342564527639006
aF3.4279961364985065
aF4.466516204749973
aa(lp84
F0.0
aF0.0
aF0.0
aF0.0
aa(lp85
F0.0
aF0.0
aF0.0
aF0.0
aa(lp86
F-0.19566474664341826
aF-0.005383694383239388
aF0.09997319202341855
aF-0.04208182371345099
aa(lp87
F-0.5595314343120636
aF-0.23895276794132617
aF-0.05904212243847829
aF-0.2508061960967931
aa(lp88
F-0.7509679100139932
aF-0.33774808794255995
aF-0.7303965121000296
aF-0.8549063676385111
aa(lp89
F-1.4233621139498973
aF-1.131295409973746
aF-1.1889679206231487
aF-1.3086588860384643
aa(lp90
F-1.0699248237911045
aF-0.9801195405510015
aF-1.1922477690000002
aF-0.9219549
aa(lp91
F-1.30778977761619
aF-1.2249730001
aF-1.304684426916368
aF-1.226442
aa(lp92
F-0.3958175707196797
aF-0.49700000000000005
aF-0.37636965134676603
aF-0.5700000000000001
aa(lp93
F-0.3351274688634205
aF-0.398
aF-0.3946888092012578
aF-0.4536804711181036
aa(lp94
F-0.2
aF-0.32016597166276906
aF0.009589198439732632
aF-0.16331922533804777
aa(lp95
F1.7792272948556813
aF0.0863801220094338
aF0.0
aF0.0
aa(lp96
F2.596548545100731
aF0.3958378492107967
aF0.8046079930109218
aF0.8738530839063385
aa(lp97
F3.243398401366225
aF2.72666550349876
aF2.906909235296327
aF3.455544452589405
aa(lp98
F0.0
aF0.0
aF0.0
aF0.0
aa(lp99
F0.0
aF0.0
aF0.0
aF0.0
aa(lp100
F-0.04492500428215255
aF0.01954255314629169
aF0.2213723371611548
aF-0.007242975643093209
aa(lp101
F-0.3826678744256568
aF0.11387628838427606
aF-0.17308909654664553
aF-0.18822588532499698
aa(lp102
F-0.8398259018872356
aF-0.14608452307383607
aF-0.6085469264717577
aF-0.4771744259110349
aa(lp103
F-1.061819301
aF-0.8547105781986079
aF-0.973516602977915
aF-1.0584164349589262
aa(lp104
F-1.0516934910000002
aF-0.9510138951557058
aF-0.9176947954833299
aF-0.9950654653184026
aa(lp105
F-0.9352283780000001
aF-0.8615412067840108
aF-0.8713808254450022
aF-0.9708973458773017
aa(lp106
F-0.5192361731578511
aF-0.59402
aF-0.5362046245818394
aF-0.6062371853201561
aa(lp107
F-0.1767837443801203
aF-0.2
aF0.029469392247750983
aF-0.22435620514401888
aa(lp108
F0.4056565602950925
aF0.0
aF0.0
aF0.0
aa(lp109
F1.0735066677460237
aF0.0
aF0.0
aF0.0
aa(lp110
F2.3839372391570066
aF0.35059687365197767
aF0.7744798475957881
aF1.130509656434683
aa(lp111
F2.475806324495932
aF2.2486860196845586
aF2.385201278746279
aF2.863274227995954
aa(lp112
F0.0
aF0.0
aF0.0
aF0.0
aa(lp113
F0.0
aF0.0
aF0.0
aF0.0
aa(lp114
F-0.004869783951948318
aF0.020994664654858202
aF0.31565688661933866
aF0.07457289019590366
aa(lp115
F-0.2789397662300917
aF0.014109953851373765
aF0.2831151627973133
aF-0.05824827719051803
aa(lp116
F-0.3350139880727903
aF-0.32237328357537176
aF-0.1925471788551547
aF-0.34963650720452194
aa(lp117
F-0.9535870329152379
aF-0.8454729111594012
aF-0.8646537850419905
aF-0.9751078921045637
aa(lp118
F-0.5771000000000001
aF-0.594574358669195
aF-0.5600664352617828
aF-0.507
aa(lp119
F-0.5832946589893264
aF-0.876746297939605
aF-0.6160592999906308
aF-0.5684529778164141
aa(lp120
F-0.3332754000395619
aF-0.4061
aF-0.31487162825058673
aF-0.4052
aa(lp121
F0.09419552183450314
aF-0.2171
aF-0.15523331073326194
aF-0.209
aa(lp122
F0.7546474898769592
aF0.0
aF0.0
aF0.0
aa(lp123
F0.000546869526490273
aF0.0
aF1.1254138236799813
aF0.0
aa(lp124
F1.9533972363108274
aF0.9867354843266095
aF0.2968217217487715
aF1.345199920311507
aa(lp125
F2.0462937167145463
aF2.0623352905904073
aF1.880708917905802
aF2.3441287413930034
aa(lp126
F0.0
aF0.0
aF0.0
aF0.0
aa(lp127
F0.0
aF0.0
aF0.0
aF0.0
aa(lp128
F0.028355893494244746
aF0.01988381487844694
aF0.35900976123423234
aF0.05261878733534105
aa(lp129
F-0.03130190351069877
aF0.06337468050137646
aF0.3776253818913346
aF-0.03777896365500234
aa(lp130
F-0.3649777611739857
aF-0.19069768306876808
aF0.25604838754982984
aF-0.1822915712989686
aa(lp131
F-0.18982443497660076
aF-0.1
aF0.35155080520136656
aF-0.13350468724813394
aa(lp132
F-0.1862164761011994
aF-0.199
aF0.009860639773475594
aF-0.2
aa(lp133
F-0.1484315757330485
aF-0.1
aF-0.2344747456252565
aF-0.2171
aa(lp134
F-0.1
aF-0.17865011400483927
aF0.0171293747688247
aF0.0
aa(lp135
F0.327034128664676
aF-0.08377837788146313
aF0.0
aF0.0
aa(lp136
F0.6899310386739139
aF0.0
aF0.0
aF0.1365464057842791
aa(lp137
F1.5801116441666547
aF0.0
aF0.0937753820678659
aF0.0
aa(lp138
F1.1270558304567866
aF0.47977119071770313
aF0.2645361408406211
aF1.9103673852746954
aa(lp139
F1.7118885662703183
aF1.6671292903065722
aF1.4623351652999281
aF1.8308537173689396
aa(lp140
F0.0
aF0.0
aF0.0
aF0.0
aa(lp141
F0.0
aF0.0
aF0.0
aF0.0
aa(lp142
F0.05481565842046414
aF0.00023504668317741716
aF0.40162101330106675
aF0.0
aa(lp143
F0.5020513851368923
aF0.0833662583435965
aF0.024039584833193538
aF0.037896085566781826
aa(lp144
F-0.028364032966057717
aF0.014443952320908466
aF0.5254693502193829
aF-0.2960740806953706
aa(lp145
F0.10015119822320753
aF0.06514156613033606
aF0.685738827857415
aF-0.3721126780460222
aa(lp146
F-0.003375260121776989
aF0.01741663815884247
aF0.6083126521789316
aF-0.2799896569395497
aa(lp147
F-0.03892647314757736
aF-0.09956635159604539
aF0.6064083976978469
aF-0.09979864458333428
aa(lp148
F0.015442117541232953
aF-0.005168766179235024
aF0.5953464819380295
aF0.0
aa(lp149
F0.9429464090117249
aF0.06275592327802026
aF0.06169558337408098
aF-0.020559680252566083
aa(lp150
F1.322212321537294
aF0.23121320472680984
aF0.1334589242165456
aF0.07723182330820244
aa(lp151
F1.4018078577909958
aF0.6389888539778584
aF0.5157008502299314
aF0.8918206953684875
aa(lp152
F0.8622326271636843
aF0.7596645000766276
aF0.7057897412336285
aF1.6815796267488983
aa(lp153
F1.2808552393639445
aF1.3332055246508328
aF1.1704045790145445
aF1.4589515926767578
aa(lp154
F0.0
aF0.0
aF0.0
aF0.0
aa(lp155
F0.0
aF0.0
aF0.0
aF0.0
aa(lp156
F0.18422678221048064
aF0.1767126963667516
aF0.48342475963784354
aF0.1071877024690486
aa(lp157
F0.00023978937437730565
aF0.07283360844748393
aF0.5078007704271311
aF0.03219216475928657
aa(lp158
F0.6659175887710338
aF0.1863093393623676
aF0.13600734245314888
aF0.1728018110897271
aa(lp159
F0.7416384383887643
aF0.26107144289788575
aF0.11976843888936976
aF0.1746711660011375
aa(lp160
F0.8193656422967869
aF0.24984597195473285
aF0.4041815937993318
aF0.19999929903626637
aa(lp161
F0.9346232835767957
aF0.20333891762430392
aF0.2754967927942451
aF0.23123904041534987
aa(lp162
F1.026297138739178
aF0.4286013155932872
aF0.27099712167995177
aF0.03895447851860881
aa(lp163
F1.104603651690892
aF0.3543292553658111
aF0.30810157982142244
aF0.49485377978674056
aa(lp164
F0.5670449289188235
aF0.41119037541889664
aF0.4827563734259742
aF1.2608981714318643
aa(lp165
F1.2301696820119488
aF0.59904856734584
aF0.5459524752811908
aF0.4101816778594856
aa(lp166
F0.9422958211894128
aF0.5246893963618443
aF0.46187887848847303
aF1.46296995623239
aa(lp167
F0.9195400255399065
aF0.8966724622721165
aF0.7916059473621143
aF1.2284565132190224
aa(lp168
F0.0
aF0.0
aF0.0
aF0.0
aa(lp169
F0.0
aF0.0
aF0.0
aF0.0
aa(lp170
F0.5218432977604487
aF0.208743581853148
aF0.2531071808000377
aF0.22707226053391044
aa(lp171
F0.5645107058437446
aF0.1555303784355683
aF0.015780307741939146
aF0.18598476857305313
aa(lp172
F0.6353008168091487
aF0.2271563719031949
aF0.3465953293662165
aF0.297955252941346
aa(lp173
F0.7050687884676187
aF0.3630151026301435
aF0.19677185067408126
aF0.04944894004824594
aa(lp174
F0.7783786518874704
aF0.4533604968442698
aF0.2360924446054974
aF0.4001292540909526
aa(lp175
F0.8371425226090063
aF0.49220290439599446
aF0.1705131243634238
aF0.2669155832319539
aa(lp176
F0.919849551287563
aF0.1257073808995015
aF0.3363332771879491
aF0.2576086672105669
aa(lp177
F0.993528714630673
aF0.3355257814825616
aF0.4615695446754347
aF0.5265472707406255
aa(lp178
F0.18094093374826936
aF0.3717062566347794
aF0.596177257635675
aF1.1087700817298756
aa(lp179
F0.13937694534337497
aF0.25724629837054397
aF0.09687497349240873
aF1.101338167379738
aa(lp180
F0.7551309582999727
aF0.18094484143264017
aF0.0617968479485486
aF0.24644751576272114
aa(lp181
F0.2872122835003673
aF0.16234149066863496
aF0.3890836399604869
aF0.9619763838056877
aa(lp182
F0.0
aF0.0
aF0.0
aF0.0
aa(lp183
F0.0
aF0.0
aF0.0
aF0.0
aa(lp184
F0.0
aF0.0
aF0.0
aF0.0
aa(lp185
F0.0
aF0.0
aF0.0
aF0.0
aa(lp186
F0.0
aF0.0
aF0.0
aF0.0
aa(lp187
F0.0
aF0.0
aF0.0
aF0.0
aa(lp188
F0.0
aF0.0
aF0.0
aF0.0
aa(lp189
F0.0
aF0.0
aF0.0
aF0.0
aa(lp190
F0.0
aF0.0
aF0.0
aF0.0
aa(lp191
F0.0
aF0.0
aF0.0
aF0.0
aa(lp192
F0.0
aF0.0
aF0.0
aF0.0
aa(lp193
F0.0
aF0.0
aF0.0
aF0.0
aa(lp194
F0.0
aF0.0
aF0.0
aF0.0
aa(lp195
F0.0
aF0.0
aF0.0
aF0.0
aa(lp196
F0.0
aF0.0
aF0.0
aF0.0
aa.