(lp0
(lp1
F0.0
aF0.0
aF0.0
aF0.0
aa(lp2
F0.0
aF0.0
aF0.0
aF0.0
aa(lp3
F0.0
aF0.0
aF0.0
aF0.0
aa(lp4
F0.0
aF0.0
aF0.0
aF0.0
aa(lp5
F0.0
aF0.0
aF0.0
aF0.0
aa(lp6
F0.0
aF0.0
aF0.0
aF0.0
aa(lp7
F0.0
aF0.0
aF0.0
aF0.0
aa(lp8
F0.0
aF0.0
aF0.0
aF0.0
aa(lp9
F0.0
aF0.0
aF0.0
aF0.0
aa(lp10
F0.0
aF0.0
aF0.0
aF0.0
aa(lp11
F0.0
aF0.0
aF0.0
aF0.0
aa(lp12
F0.0
aF0.0
aF0.0
aF0.0
aa(lp13
F0.0
aF0.0
aF0.0
aF0.0
aa(lp14
F0.0
aF0.0
aF0.0
aF0.0
aa(lp15
F0.0
aF0.0
aF0.0
aF0.0
aa(lp16
F1.0097379000000003e-06
aF0.0
aF0.0
aF0.0
aa(lp17
F1.0097379000000004e-05
aF0.0
aF0.0
aF0.0
aa(lp18
F0.008367204140528694
aF0.0
aF0.0
aF0.0
aa(lp19
F0.0009836724162954591
aF0.0
aF0.0
aF0.0
aa(lp20
F0.0828490880840426
aF0.0
aF0.0
aF0.0
aa(lp21
F0.32523587508946145
aF0.0
aF0.34316320151535173
aF0.0
aa(lp22
F0.599489536945342
aF0.0
aF0.0
aF0.0
aa(lp23
F1.8840488691388018
aF0.0
aF0.0
aF0.0
aa(lp24
F2.929165322816258
aF0.0
aF0.0
aF0.0
aa(lp25
F6.1324372289564355
aF0.0
aF0.0
aF0.0
aa(lp26
F8.223423998691729
aF0.0
aF1.7988276125601805
aF0.0
aa(lp27
F0.0
aF0.0
aF0.0
aF0.0
aa(lp28
F0.0
aF0.0
aF0.0
aF0.0
aa(lp29
F0.0
aF0.0
aF0.0
aF0.0
aa(lp30
F0.07523147141726855
aF0.0
aF0.0
aF0.0
aa(lp31
F0.2642654252804731
aF0.0
aF0.0
aF0.0
aa(lp32
F0.061690151473348304
aF0.1125499399542486
aF-0.046447016557290555
aF0.0
aa(lp33
F0.9984196777481262
aF0.016848917175191
aF-0.1
aF0.0
aa(lp34
F1.8598525839332227
aF0.0
aF-0.27029057258622535
aF0.0012327464059335043
aa(lp35
F2.1158657911116094
aF0.010717737598215829
aF0.0
aF0.029048517195789596
aa(lp36
F3.9733163052984843
aF0.47482009770275635
aF0.0
aF0.09040592532850518
aa(lp37
F3.9329115927293383
aF0.006353833237298908
aF-0.1
aF0.13422331405218074
aa(lp38
F5.820205532631499
aF0.4395310001987731
aF-0.0923534949769091
aF0.44831830759874786
aa(lp39
F7.1637895251294195
aF0.7072566264349165
aF0.29072806557897357
aF1.1289912595720282
aa(lp40
F7.0098864987554155
aF3.1939064739594634
aF2.1169954147254626
aF2.0360417258011143
aa(lp41
F8.093745851630853
aF7.4811430729942865
aF7.229442782922277
aF9.025498200712843
aa(lp42
F0.0
aF0.0
aF0.0
aF0.0
aa(lp43
F0.0
aF0.0
aF0.0
aF0.0
aa(lp44
F0.0020231765112058465
aF0.0
aF-0.00014305564953178584
aF0.0476697312039686
aa(lp45
F-0.1799286229942673
aF-0.08075387333814191
aF-0.055888265928111566
aF-0.03525963241529967
aa(lp46
F-0.3914434928491129
aF0.043828593633396896
aF-0.18157132188664382
aF-0.08638956675249851
aa(lp47
F-0.15643617588388012
aF-0.08356073076605217
aF-0.26003757929845217
aF0.4857652499872904
aa(lp48
F-0.1
aF-0.1
aF-0.40862
aF0.6838346599710562
aa(lp49
F-0.2524500233807899
aF-0.199
aF-0.2
aF0.6468127517186981
aa(lp50
F-0.1
aF-0.1
aF-0.2
aF0.7167663183252313
aa(lp51
F-0.014165892872437816
aF-0.09921406463899105
aF-0.0667966903757246
aF0.8209800489424476
aa(lp52
F0.7341862477140505
aF0.0
aF0.0
aF0.0
aa(lp53
F2.9030910768408726
aF0.0
aF0.8346733078482349
aF0.0
aa(lp54
F5.849151092389553
aF2.3204160646229046
aF2.6475704208252995
aF4.2340367667430145
aa(lp55
F6.156164879518486
aF5.465964783230169
aF5.939950911497916
aF7.072842142786478
aa(lp56
F0.0
aF0.0
aF0.0
aF0.0
aa(lp57
F0.0
aF0.0
aF0.0
aF0.0
aa(lp58
F-0.011986968002538751
aF-0.025862083482709526
aF-0.015921833627933063
aF-0.007915621132341833
aa(lp59
F-0.569213206313146
aF-0.057283808695988744
aF-0.05892133544136008
aF-0.03161570736471021
aa(lp60
F-0.599680498204176
aF-0.1795536620564594
aF-0.4717264292353105
aF-0.4126315352499931
aa(lp61
F-0.7639197206790765
aF-0.7740762665111385
aF-0.697184777149921
aF-0.5917816410652634
aa(lp62
F-0.5690000000000001
aF-0.5197665449
aF-0.6501860731038281
aF-0.5153287192126991
aa(lp63
F-0.719309
aF-0.6956114803892383
aF-0.5862290829983787
aF-0.5786071609676984
aa(lp64
F-0.38
aF-0.4301024937174734
aF-0.30000000000000004
aF-0.2622453130959164
aa(lp65
F-0.08859592692954123
aF-0.2
aF-0.2149384041229393
aF-0.07754370817080124
aa(lp66
F0.3469711212405858
aF0.0
aF0.0
aF0.0
aa(lp67
F1.462722358330887
aF0.0
aF0.0
aF0.0
aa(lp68
F1.4807929761273169
aF0.420419124608974
aF0.7736534306791505
aF5.831731026310111
aa(lp69
F5.20769002636207
aF5.185643416730917
aF4.968656119956634
aF5.702703817964313
aa(lp70
F0.0
aF0.0
aF0.0
aF0.0
aa(lp71
F0.0
aF0.0
aF0.0
aF0.0
aa(lp72
F-0.16434174585803718
aF-0.03960796354502223
aF-0.05167989585699402
aF-0.04569315634792284
aa(lp73
F-0.49810139283581933
aF-0.032933855400815656
aF-0.15990566427966607
aF-0.19876723091175036
aa(lp74
F-0.7965175480636171
aF-0.5358564596370864
aF-0.7254847738156857
aF-0.7547426782427747
aa(lp75
F-1.3311122677590002
aF-1.0724844451252968
aF-1.3076409709104513
aF-1.254982195914028
aa(lp76
F-1.2949919805996075
aF-1.141547153788954
aF-1.2005643770075327
aF-1.1460602488243539
aa(lp77
F-0.9766438017066703
aF-0.9143684227261433
aF-0.787439452140894
aF-0.8540620151132532
aa(lp78
F-0.5602617469854084
aF-0.6339854100000001
aF-0.5776031066002874
aF-0.6886937568107381
aa(lp79
F-0.23819177319278792
aF-0.44500956374482853
aF-0.21130083716902873
aF-0.27362632808697535
aa(lp80
F0.3251176169044345
aF0.0
aF0.0
aF0.0
aa(lp81
F1.397669793631588
aF-0.0984556603134229
aF0.0
aF0.0
aa(lp82
F3.7710934083756404
aF1.000482125074692
aF0.37499436361364535
aF0.5503828900380654
aa(lp83
F3.991281614090518
aF3.968643503964458
aF3.7996622470120953
aF4.833390604277796
aa(lp84
F0.0
aF0.0
aF0.0
aF0.0
aa(lp85
F0.0
aF0.0
aF0.0
aF0.0
aa(lp86
F-0.07601494534001843
aF0.011802152994397993
aF0.17124981629116037
aF-0.014574145347606544
aa(lp87
F-0.4421683744222903
aF0.001081896268219246
aF-0.24938996179457668
aF-0.23598051216704263
aa(lp88
F-0.866147030786616
aF-0.2894598611359201
aF-0.48818488103836133
aF-0.8021050995706113
aa(lp89
F-1.453234207259484
aF-1.3332093141723662
aF-1.4116173552657298
aF-1.4529680568076544
aa(lp90
F-1.492326917639496
aF-1.3218902500871113
aF-1.3180738410242716
aF-1.425021558459813
aa(lp91
F-1.153347953574076
aF-1.219025782922415
aF-1.1143073713663
aF-1.086402
aa(lp92
F-0.2019190375578845
aF-0.4952000000000001
aF-0.40601
aF-0.31800000000000006
aa(lp93
F-0.16328706796906745
aF-0.398
aF-0.3699963697251604
aF-0.2066014516779645
aa(lp94
F0.7864966355227891
aF0.0
aF0.0
aF0.0
aa(lp95
F1.5538003494877968
aF0.0
aF0.0
aF0.0
aa(lp96
F0.8893583503108393
aF0.5312448802184558
aF0.4418090409668966
aF3.474045548152297
aa(lp97
F3.213758715981608
aF3.1821414354719195
aF2.9664241234889093
aF3.9098009852837987
aa(lp98
F0.0
aF0.0
aF0.0
aF0.0
aa(lp99
F0.0
aF0.0
aF0.0
aF0.0
aa(lp100
F-0.012320769659109918
aF0.060303102286927916
aF0.2985611675084171
aF-0.015740457790977373
aa(lp101
F-0.4898529652948975
aF-0.1916401641140852
aF0.13899605417520097
aF-0.1585146320694972
aa(lp102
F-0.638005389819485
aF0.006724874848750557
aF-0.5564344559286336
aF-0.42188752623020453
aa(lp103
F-1.0395578898548046
aF-1.0398400267412713
aF-1.156150170872424
aF-1.0998799286980312
aa(lp104
F-1.2216952955555764
aF-1.1197257374124332
aF-1.3968283891196824
aF-1.1295427989793319
aa(lp105
F-0.5247097007532685
aF-0.6829141100904067
aF-0.5590943934120214
aF-0.7936581
aa(lp106
F-0.4849554896393533
aF-0.6895583510496262
aF-0.46943401290973336
aF-0.389
aa(lp107
F-0.1859554896393533
aF-0.1
aF-0.18914963141523275
aF-0.21757840675414364
aa(lp108
F-0.05551038603288611
aF-0.1
aF0.01723430896558918
aF0.0
aa(lp109
F0.8197189966166463
aF0.0
aF0.0
aF0.0
aa(lp110
F2.353756016776337
aF0.8555722591054142
aF1.1389588331188767
aF0.3599935477340441
aa(lp111
F2.552661728069372
aF2.4867034571647753
aF2.396234608919496
aF2.9892092647237574
aa(lp112
F0.0
aF0.0
aF0.0
aF0.0
aa(lp113
F0.0
aF0.0
aF0.0
aF0.0
aa(lp114
F-0.013711578053207534
aF0.09993252002007419
aF0.3350897918008524
aF0.019357067613761405
aa(lp115
F-0.6160701701436415
aF0.07453381598457658
aF0.37677517541228434
aF-0.2321705589454674
aa(lp116
F-0.4120425913496343
aF0.19042437737799953
aF-0.11664625429034142
aF-0.45963265455718144
aa(lp117
F-0.9311204901772221
aF-0.9772523586306463
aF-0.7640563488479117
aF-0.9698802134406671
aa(lp118
F-0.7463000000000001
aF-0.5853931786054309
aF-0.5966650542378333
aF-0.8107580700753267
aa(lp119
F-0.5681
aF-0.40439
aF-0.3940637290488916
aF-0.398
aa(lp120
F-0.20766397003310683
aF-0.398
aF-0.338505299481973
aF-0.30669554896393536
aa(lp121
F0.0783464442408534
aF0.0
aF0.0
aF0.0
aa(lp122
F0.5526246030754167
aF0.0
aF0.0
aF0.0
aa(lp123
F0.8159721064448548
aF0.0
aF0.0
aF0.0
aa(lp124
F0.5489844213900222
aF0.1850531754179076
aF0.5586271048555241
aF2.280447293054314
aa(lp125
F2.148200561972576
aF2.10308621527865
aF1.9785944064102503
aF2.317910644198961
aa(lp126
F0.0
aF0.0
aF0.0
aF0.0
aa(lp127
F0.0
aF0.0
aF0.0
aF0.0
aa(lp128
F0.03914381977779899
aF0.0418204556636184
aF0.37750852991189976
aF0.057095073238197167
aa(lp129
F-0.036011400970366814
aF0.053903550931914256
aF0.46558034017481414
aF-0.018571676678698648
aa(lp130
F-0.3058733235018828
aF-0.0884706862106914
aF0.41327998471170135
aF-0.47661826978318916
aa(lp131
F-0.2872263124207337
aF-0.23882716277867014
aF0.3416392281649678
aF-0.36703715306145024
aa(lp132
F-0.3609996766066416
aF-0.43559626118251854
aF0.16230275310714098
aF-0.6341022757887892
aa(lp133
F-0.163318706534886
aF-0.1
aF-0.15998519999187172
aF0.0
aa(lp134
F-0.1
aF-0.19899996376418466
aF0.1565802066909354
aF-0.2989966694750996
aa(lp135
F0.0
aF0.0
aF0.36224928821191565
aF0.0
aa(lp136
F0.42958208489514693
aF0.0
aF0.0
aF0.0
aa(lp137
F0.590086863022572
aF0.0
aF0.0
aF0.0
aa(lp138
F0.5119608302965477
aF0.10859184807252115
aF1.387447718392881
aF0.8727115415880756
aa(lp139
F1.7063605234518402
aF1.4305507623335596
aF1.5646783573642407
aF1.8003597522821453
aa(lp140
F0.0
aF0.0
aF0.0
aF0.0
aa(lp141
F0.0
aF0.0
aF0.0
aF0.0
aa(lp142
F0.396173802279726
aF0.03398067166369143
aF0.10723022003130375
aF0.031059364277348508
aa(lp143
F0.5442188430596224
aF0.09569970546201081
aF0.14473695514067217
aF0.0362081134023661
aa(lp144
F0.05588073190872538
aF0.18220066273517413
aF0.5786483679680748
aF-0.10219862324800619
aa(lp145
F-0.1600227102127984
aF0.09185335295047402
aF0.6817643227712175
aF-0.37979128785554056
aa(lp146
F-0.04785996898322595
aF0.47077080901590007
aF0.005989919126821612
aF-0.29975902488476225
aa(lp147
F0.04931904690621792
aF-0.01890864832231587
aF0.6463922398034321
aF-0.27503314948320867
aa(lp148
F-0.09973698411494278
aF-0.0829697642562959
aF0.6708590539373803
aF-0.1568854053601837
aa(lp149
F-0.03787636630280139
aF0.048093081610674285
aF0.8462387230735378
aF-0.11980416599722388
aa(lp150
F1.1038294434273115
aF0.09526895111233946
aF0.08436896498494204
aF0.01293101147809214
aa(lp151
F1.3368028996085002
aF0.22560973217499214
aF0.11866297642422503
aF0.0
aa(lp152
F0.8392080903377404
aF0.6107159700586873
aF0.7902164593254433
aF1.3489534939008343
aa(lp153
F1.339690458131718
aF1.357328366015306
aF1.3213142772027462
aF1.4840183789403518
aa(lp154
F0.0
aF0.0
aF0.0
aF0.0
aa(lp155
F0.0
aF0.0
aF0.0
aF0.0
aa(lp156
F0.5142709890076148
aF0.12379439939115017
aF0.13472244422967264
aF0.14494433429032982
aa(lp157
F0.5960605182399726
aF0.06414283615771348
aF0.08177819901992031
aF0.05166423853884963
aa(lp158
F0.6549390978691682
aF0.1433019935214872
aF0.18650146068019396
aF0.1134789674182273
aa(lp159
F0.7291931110813099
aF0.42957266966365387
aF0.24654209974649133
aF0.20167520350582335
aa(lp160
F0.7675123718861676
aF0.406222915104782
aF0.3293633817091109
aF0.2125279737941436
aa(lp161
F0.8362802936493452
aF0.47450161898337145
aF0.2115334464352061
aF0.1583107184222262
aa(lp162
F0.8999934997122578
aF0.4048395390233562
aF0.322288949382065
aF0.31324579271109626
aa(lp163
F0.9890285111317053
aF0.5162931261999033
aF0.3960479875543863
aF0.5487433976086714
aa(lp164
F1.0835047740702017
aF0.6790416912339173
aF0.6143422764551931
aF0.6352193666911624
aa(lp165
F1.12655891148724
aF0.702394050069881
aF0.48988654086855266
aF0.4926441932809441
aa(lp166
F1.0308652784167684
aF0.7479424280798017
aF0.5609813447276144
aF1.2335259573984283
aa(lp167
F1.078478623380185
aF1.073596207447859
aF1.0123971898567656
aF1.2177512375145998
aa(lp168
F0.0
aF0.0
aF0.0
aF0.0
aa(lp169
F0.0
aF0.0
aF0.0
aF0.0
aa(lp170
F0.4881187240841309
aF0.1928653087980157
aF0.17945391306090971
aF0.16607337290830199
aa(lp171
F0.5230594780622484
aF0.13776208939435985
aF0.14150620965982147
aF0.1373295215681387
aa(lp172
F0.5960240004121022
aF0.05153427191406423
aF0.0464204591082276
aF0.163075375184854
aa(lp173
F0.12991979391476777
aF0.11765349116575802
aF0.186878338932131
aF0.6573689816983468
aa(lp174
F0.039457636919420065
aF0.10615875461357002
aF0.19665748464765154
aF0.7145881516517963
aa(lp175
F0.5199052409662356
aF0.05106884284472285
aF0.03410962601226691
aF0.0
aa(lp176
F0.6368588631939622
aF0.0
aF0.04751922601342762
aF0.1525456798839372
aa(lp177
F0.766834735708208
aF0.09962067693679724
aF0.07092316494145073
aF0.21106775157586477
aa(lp178
F0.14659884072073692
aF0.054780290856935004
aF0.21068193412885478
aF0.9839728227004156
aa(lp179
F0.847118773914334
aF0.0
aF0.0
aF0.24619652445454326
aa(lp180
F0.8238654821895599
aF0.2840949547386713
aF0.2619263536504341
aF0.21265289111126806
aa(lp181
F0.3331433029865695
aF0.3342587116183938
aF0.23104629430268864
aF1.0618071966130755
aa(lp182
F0.0
aF0.0
aF0.0
aF0.0
aa(lp183
F0.0
aF0.0
aF0.0
aF0.0
aa(lp184
F0.0
aF0.0
aF0.0
aF0.0
aa(lp185
F0.0
aF0.0
aF0.0
aF0.0
aa(lp186
F0.0
aF0.0
aF0.0
aF0.0
aa(lp187
F0.0
aF0.0
aF0.0
aF0.0
aa(lp188
F0.0
aF0.0
aF0.0
aF0.0
aa(lp189
F0.0
aF0.0
aF0.0
aF0.0
aa(lp190
F0.0
aF0.0
aF0.0
aF0.0
aa(lp191
F0.0
aF0.0
aF0.0
aF0.0
aa(lp192
F0.0
aF0.0
aF0.0
aF0.0
aa(lp193
F0.0
aF0.0
aF0.0
aF0.0
aa(lp194
F0.0
aF0.0
aF0.0
aF0.0
aa(lp195
F0.0
aF0.0
aF0.0
aF0.0
aa(lp196
F0.0
aF0.0
aF0.0
aF0.0
aa.