(lp0
(lp1
F0.0
aF0.0
aF0.0
aF0.0
aa(lp2
F0.0
aF0.0
aF0.0
aF0.0
aa(lp3
F0.0
aF0.0
aF0.0
aF0.0
aa(lp4
F0.0
aF0.0
aF0.0
aF0.0
aa(lp5
F0.0
aF0.0
aF0.0
aF0.0
aa(lp6
F0.0
aF0.0
aF0.0
aF0.0
aa(lp7
F0.0
aF0.0
aF0.0
aF0.0
aa(lp8
F0.0
aF0.0
aF0.0
aF0.0
aa(lp9
F0.0
aF0.0
aF0.0
aF0.0
aa(lp10
F0.0
aF0.0
aF0.0
aF0.0
aa(lp11
F0.0
aF0.0
aF0.0
aF0.0
aa(lp12
F0.0
aF0.0
aF0.0
aF0.0
aa(lp13
F0.0
aF0.0
aF0.0
aF0.0
aa(lp14
F0.0
aF0.0
aF0.0
aF0.0
aa(lp15
F0.0
aF0.0
aF0.0
aF0.0
aa(lp16
F0.6618366563907279
aF0.0
aF0.0
aF0.0
aa(lp17
F3.038569543197296
aF0.06383898077094989
aF0.12278255830628336
aF0.009262619458986116
aa(lp18
F3.890398669125609
aF0.21417504470032833
aF0.0
aF0.5741888080036616
aa(lp19
F4.15681927144055
aF0.5629086771269916
aF0.10833330220333208
aF0.6926673479659328
aa(lp20
F4.5862180859787065
aF1.1597610945147672
aF0.2911916106512824
aF0.8826315305430732
aa(lp21
F4.8680609564183515
aF1.114250938990624
aF0.9554266084236002
aF0.8425559055827978
aa(lp22
F5.648140613774317
aF1.3329622215551014
aF0.5472321920070102
aF0.49011051596136074
aa(lp23
F5.615728401207695
aF0.5493256690060025
aF1.189931090036397
aF0.424017376161472
aa(lp24
F6.553138824205273
aF1.364917075477833
aF0.5471365698578734
aF0.5664952516244742
aa(lp25
F7.90798434168173
aF0.31331603490861437
aF1.0927331112040037
aF3.2353519921654055
aa(lp26
F2.8239589658130333
aF3.0023133346702533
aF6.839750539978748
aF0.0
aa(lp27
F0.0
aF0.0
aF0.0
aF0.0
aa(lp28
F0.0
aF0.0
aF0.0
aF0.0
aa(lp29
F0.0
aF0.0
aF0.0
aF0.0
aa(lp30
F1.4845906845099923
aF0.0
aF0.0
aF0.001318812726471392
aa(lp31
F-0.00442978525846245
aF5.25361863667681e-07
aF0.10064192988942715
aF2.8190746435355667
aa(lp32
F0.003107307060106146
aF0.06393861846542072
aF-0.05224630824162077
aF3.274680073451262
aa(lp33
F-0.08997205452400207
aF2.0289236897011587
aF-0.09479260487824927
aF0.38984115592287805
aa(lp34
F-0.08892292942820934
aF0.9419380820571637
aF-0.3774120231091467
aF-0.11299649215671564
aa(lp35
F0.05650394958606432
aF-0.004932138766145599
aF-0.09989388559672875
aF3.3716667865960686
aa(lp36
F-0.1
aF1.1045497290253734
aF-0.1
aF0.0
aa(lp37
F2.2929392884778843
aF9.311667307674784e-05
aF-0.0045190831376838774
aF0.0
aa(lp38
F4.7593603251769885
aF0.10412461676006518
aF-0.08787011883316669
aF0.0
aa(lp39
F5.856961989259127
aF0.32307740518304845
aF0.0
aF0.6339559982856645
aa(lp40
F6.405425279263466
aF3.60138085314681
aF4.053980618277255
aF4.226889387026985
aa(lp41
F7.476744201566132
aF7.195518344874313
aF7.284126910692325
aF8.853182028122838
aa(lp42
F0.0
aF0.0
aF0.0
aF0.0
aa(lp43
F0.0
aF0.0
aF0.0
aF0.0
aa(lp44
F-0.00039138489923090447
aF0.003463791917368844
aF0.048470248680649586
aF1.571556382339419
aa(lp45
F-0.2792335667829244
aF0.04077028503518832
aF0.05269817220671487
aF2.326341454905268
aa(lp46
F-0.40940642964776425
aF0.9886140118014828
aF-0.1296331306472591
aF-0.1167570412410079
aa(lp47
F-0.20009821858326152
aF-0.27834039919880776
aF-0.43641604836564735
aF0.6534656621058335
aa(lp48
F-0.27089262385829554
aF-0.30837354925535276
aF-0.40700000000000003
aF0.3372352944385731
aa(lp49
F-0.19
aF-0.208
aF-0.389
aF0.11283293212540602
aa(lp50
F-0.1458654639949183
aF-0.1
aF-0.2
aF0.29771805206589347
aa(lp51
F-0.027047431011725326
aF-0.10256444974361939
aF-0.1877656242156952
aF0.3439847755221691
aa(lp52
F1.1724701872215104
aF0.0
aF0.0
aF0.0
aa(lp53
F0.1886266978631841
aF0.0
aF0.0
aF3.0311702117510597
aa(lp54
F2.2002125853510495
aF0.12987153731274256
aF1.5728673636343926
aF6.773791189384829
aa(lp55
F5.847927546738619
aF5.834602334356653
aF5.570067433194605
aF7.209584871871234
aa(lp56
F0.0
aF0.0
aF0.0
aF0.0
aa(lp57
F0.0
aF0.0
aF0.0
aF0.0
aa(lp58
F-0.002361359974057536
aF0.17861740679421018
aF0.012940610671654945
aF1.0901180744598438
aa(lp59
F-0.5596323198339102
aF-0.13344272188285503
aF-0.1034193944316042
aF1.1159165406447717
aa(lp60
F-0.6829095569153779
aF-0.26689642798523777
aF-0.4249065983801895
aF-0.4121604177362316
aa(lp61
F-0.784165861714727
aF-0.5425140598113225
aF-0.8524522203520883
aF-0.6524663045491856
aa(lp62
F-0.7864296694382436
aF-0.8464324571933836
aF-0.7969349000000001
aF-0.7476102659539647
aa(lp63
F-0.53769
aF-0.643833455111681
aF-0.6357947362038667
aF-0.35508766669709513
aa(lp64
F-0.39342072775492826
aF-0.398
aF-0.47809962466013667
aF-0.34070427901783956
aa(lp65
F-0.1
aF-0.2171
aF0.08631221047165605
aF0.0
aa(lp66
F1.2782084618098715
aF0.0
aF0.0
aF0.0
aa(lp67
F2.47978970706994
aF0.0
aF0.0
aF0.0
aa(lp68
F1.2516207803796127
aF0.6496975661939668
aF0.3392495299042842
aF5.605065983279383
aa(lp69
F4.582999101912653
aF4.594667871823549
aF4.607459538970322
aF5.6028813000913935
aa(lp70
F0.0
aF0.0
aF0.0
aF0.0
aa(lp71
F0.0
aF0.0
aF0.0
aF0.0
aa(lp72
F-0.029333361677302987
aF0.002495654662424074
aF-0.07700319521463724
aF0.8039711300497641
aa(lp73
F-1.0425250705398663
aF0.32810682572348465
aF-0.28955365966497754
aF-0.2761045787235146
aa(lp74
F-0.9971017859081763
aF-0.04073137822873263
aF-0.7171285949965645
aF-0.6440669137295124
aa(lp75
F-1.493412867006779
aF-1.5229792595786913
aF-1.596071776963298
aF-1.428556335821698
aa(lp76
F-1.1322267309929965
aF-1.0351328463743799
aF-1.2778200439273757
aF-1.0278269581942063
aa(lp77
F-1.1172677140776168
aF-1.0606341
aF-1.1855813699369677
aF-1.026646728769168
aa(lp78
F-0.6219074122145433
aF-0.9158342708936968
aF-0.7496773620386659
aF-0.6311000000000001
aa(lp79
F-0.18183150433155792
aF-0.2
aF-0.28
aF-0.14349392409423356
aa(lp80
F0.7622452723622694
aF0.0
aF0.0
aF0.0
aa(lp81
F0.7352862233355222
aF0.0
aF0.0
aF1.7582045387428316
aa(lp82
F3.162391959208193
aF0.19801167292527835
aF0.7013035684566788
aF0.4699875182942328
aa(lp83
F3.8024473911404404
aF3.3628055623067206
aF3.673520889965671
aF4.120622913265958
aa(lp84
F0.0
aF0.0
aF0.0
aF0.0
aa(lp85
F0.0
aF0.0
aF0.0
aF0.0
aa(lp86
F-0.14714850942735472
aF-0.12004105663161757
aF-0.0840182914835223
aF0.23907159417067267
aa(lp87
F-0.5321694963912011
aF-0.26730602755401495
aF-0.3712197253846338
aF-0.08873341816977431
aa(lp88
F-1.2925060447285284
aF-0.532630029667822
aF-0.9684596530169354
aF-0.8928521556744855
aa(lp89
F-1.4793531090189675
aF-1.1919437708491736
aF-1.4688099292583074
aF-1.42334230894473
aa(lp90
F-1.564998569263473
aF-1.580554186309663
aF-1.5093917861760082
aF-1.613151019488486
aa(lp91
F-1.318034186155847
aF-1.3734555998436635
aF-1.538583368337207
aF-1.3454966100000003
aa(lp92
F-0.6729559925999207
aF-0.8605497
aF-0.831751242561118
aF-0.8932205082476198
aa(lp93
F-0.168382204981126
aF-0.2
aF-0.18995943988947184
aF-0.2
aa(lp94
F0.2262389718894827
aF0.0
aF0.0
aF0.0
aa(lp95
F1.6975797934148635
aF0.0
aF4.151298386635492e-08
aF0.16351493894371236
aa(lp96
F0.17580516027392704
aF0.7348322677861323
aF2.5418104197931557
aF1.4877946026418372
aa(lp97
F2.9807779060811885
aF2.840016619779408
aF2.9669814151763334
aF3.1528583624189017
aa(lp98
F0.0
aF0.0
aF0.0
aF0.0
aa(lp99
F0.0
aF0.0
aF0.0
aF0.0
aa(lp100
F-0.06752218992314976
aF-0.016421774285639488
aF0.24473092948766528
aF-0.09408398175319338
aa(lp101
F-0.2640053860945335
aF-0.18026051294599327
aF-0.02324726375089906
aF-0.2385844898379117
aa(lp102
F-0.8256175095406075
aF-0.2733255260231766
aF-0.5449637898370319
aF-0.8798805266763098
aa(lp103
F-1.4211788671856203
aF-1.2094994705308009
aF-1.5085430000699593
aF-1.3654979940132623
aa(lp104
F-1.6913619554115922
aF-1.5771436419410463
aF-1.559246506688648
aF-1.5685815056910504
aa(lp105
F-1.0035794646852148
aF-0.9619009434300001
aF-1.0103645886178938
aF-1.082934814256112
aa(lp106
F-0.7505770462299687
aF-0.7803380000000001
aF-0.7036634555859143
aF-0.7231952542825093
aa(lp107
F-0.11021031732257495
aF-0.209
aF-0.22099482903469062
aF-0.209
aa(lp108
F-0.0995042653157667
aF-0.04581881084962121
aF0.2225342425662998
aF0.0
aa(lp109
F1.2860572886892832
aF0.0
aF0.0
aF0.0
aa(lp110
F0.6011678003322884
aF0.5967487069975113
aF0.4607625345951001
aF2.575762317906783
aa(lp111
F2.4624663255381334
aF2.4400981256973857
aF2.3002781689122895
aF2.5708380886900435
aa(lp112
F0.0
aF0.0
aF0.0
aF0.0
aa(lp113
F0.0
aF0.0
aF0.0
aF0.0
aa(lp114
F-0.06111073310433396
aF0.012977700384785781
aF0.28352150024464057
aF-0.03270348924781746
aa(lp115
F-0.41319337126722133
aF-0.11430278088620788
aF0.3031291996833759
aF-0.15708332274114603
aa(lp116
F-0.5702304630601104
aF0.022386898117039554
aF-0.5248846925419982
aF-0.45226563527013264
aa(lp117
F-0.7540123788495068
aF-0.8055722454019993
aF-0.8816776458095206
aF-0.8646152482062468
aa(lp118
F-0.6154554154290992
aF-0.6018963408526274
aF-0.6305272344373009
aF-0.9061514651839505
aa(lp119
F-0.5933679157463634
aF-0.5931275999868645
aF-0.5541852094315113
aF-0.5296628999999999
aa(lp120
F-0.35251623614319755
aF-0.28
aF-0.28024689443827344
aF-0.43895058788422914
aa(lp121
F-0.07203156960509877
aF-0.21800000000000003
aF0.19107125170130007
aF-0.1898843808259853
aa(lp122
F-0.047534044757147995
aF-0.09970209105428111
aF0.5415018026794588
aF-0.07997191816903303
aa(lp123
F1.3731200759458666
aF0.0008239830324628484
aF0.0
aF0.003580125566043039
aa(lp124
F1.9663011793705907
aF0.0
aF0.4286435806631401
aF0.3597386102047251
aa(lp125
F2.0479981776303617
aF1.961396190358185
aF1.9762727414404477
aF2.1038301218953666
aa(lp126
F0.0
aF0.0
aF0.0
aF0.0
aa(lp127
F0.0
aF0.0
aF0.0
aF0.0
aa(lp128
F0.026520881057863155
aF-0.007681479368777254
aF0.282175268307452
aF0.0
aa(lp129
F-0.12156916565331694
aF-0.0710644402827812
aF0.3541287040223116
aF-0.07199804323209696
aa(lp130
F-0.2709999999926765
aF-0.10047585174971588
aF0.3916427480256983
aF-0.47924889063225173
aa(lp131
F-0.19
aF-0.1
aF0.2151720581468685
aF-0.288677151773137
aa(lp132
F-0.1
aF-0.1
aF0.15944634121857829
aF-0.4157388727260786
aa(lp133
F-0.1
aF-0.1
aF0.0070686100387013645
aF0.0
aa(lp134
F-0.1
aF-0.09589028575916365
aF0.10698718306632084
aF-0.09970209105428111
aa(lp135
F0.11007151699837348
aF0.0
aF0.0
aF0.0
aa(lp136
F1.188494442159417
aF0.0
aF0.22147365905413569
aF0.1132690869978714
aa(lp137
F1.485993307460916
aF0.12571511127302334
aF0.13349278028708825
aF0.27722563129339417
aa(lp138
F1.4635318802474062
aF0.39087925785828237
aF0.5576078899673684
aF0.6093367613676605
aa(lp139
F1.719458868233733
aF1.4995655456974692
aF1.5691696038234852
aF1.7868001435534748
aa(lp140
F0.0
aF0.0
aF0.0
aF0.0
aa(lp141
F0.0
aF0.0
aF0.0
aF0.0
aa(lp142
F0.03391743879016884
aF0.0330977456288142
aF0.3590728136893319
aF0.0155477054738771
aa(lp143
F0.412154953622874
aF0.011118836524732978
aF0.1227014949945413
aF-0.009661080452244319
aa(lp144
F0.1809005929411271
aF0.007433727700187879
aF0.4488847443572342
aF0.004222343732381236
aa(lp145
F0.09172199431516494
aF0.12136486842282332
aF0.5538248162768812
aF-0.16538490035472408
aa(lp146
F3.406980748350541e-09
aF0.06733882215097749
aF0.6547748762370862
aF-0.09542997189585059
aa(lp147
F0.08829879418932644
aF0.458710596952816
aF0.0
aF-0.25279346171689654
aa(lp148
F0.700796539853342
aF0.0
aF0.0
aF-0.3295064414417097
aa(lp149
F0.9718921413451918
aF0.03237639392852983
aF0.05822695670583355
aF0.0
aa(lp150
F2.598135495223315e-07
aF0.07930321983086648
aF0.2635851620776988
aF1.091146673154069
aa(lp151
F1.2310465012858467
aF0.09986952117048366
aF0.39950291533086035
aF0.12776952813546674
aa(lp152
F1.3409879052663853
aF0.5055141764764871
aF0.6779138558136184
aF0.45362940073798413
aa(lp153
F1.3426833544760015
aF1.1862052979012252
aF1.225317452165101
aF1.5454178915910386
aa(lp154
F0.0
aF0.0
aF0.0
aF0.0
aa(lp155
F0.0
aF0.0
aF0.0
aF0.0
aa(lp156
F0.5117049516304389
aF0.22231203499029237
aF0.06819622286699577
aF0.10708966318677995
aa(lp157
F0.5749249966012882
aF0.02387921920013363
aF0.13723996585643428
aF0.12923200402436055
aa(lp158
F0.6019303021583082
aF0.23848574148310436
aF0.10754327821750609
aF0.15759851209254216
aa(lp159
F0.6818101285688738
aF0.33347224308813117
aF0.28356843683920585
aF0.3270035089008381
aa(lp160
F0.7364729032636197
aF0.27254640795462265
aF0.1946489657619504
aF0.26252864605502163
aa(lp161
F0.831666532757694
aF0.394352288244768
aF0.18642430965515103
aF0.17376551609213184
aa(lp162
F0.8860674679226588
aF0.33085425105209215
aF0.36107260084182424
aF0.3446020203199865
aa(lp163
F0.9292968690010122
aF0.3793760236892657
aF0.40095241186825925
aF0.4627027749419616
aa(lp164
F1.039495020238374
aF0.4779194631538274
aF0.40871938135039104
aF0.4685602426839482
aa(lp165
F1.1182316002779351
aF0.5440153761923814
aF0.33342627943970354
aF0.7025640581520606
aa(lp166
F1.0057225530892857
aF0.7946040187553935
aF0.3741999167961534
aF1.283192572881333
aa(lp167
F0.9569013810139321
aF0.9524137921183041
aF0.9878810362941539
aF1.2775716964310997
aa(lp168
F0.0
aF0.0
aF0.0
aF0.0
aa(lp169
F0.0
aF0.0
aF0.0
aF0.0
aa(lp170
F0.10917195516161476
aF0.16601804090770675
aF0.03936476387199186
aF0.4661966285950757
aa(lp171
F0.06771578368561626
aF0.0
aF0.0
aF0.37244879552390703
aa(lp172
F0.39733638248143976
aF0.0
aF0.0
aF0.0
aa(lp173
F0.05584634542910616
aF0.0010008573486886784
aF0.05072607726964872
aF0.5636230807738746
aa(lp174
F0.0427150898944375
aF0.0031135533689796305
aF0.024620574011860425
aF0.624072080771157
aa(lp175
F0.5098087193856895
aF0.03724209639667714
aF0.012426402886355969
aF0.0
aa(lp176
F0.6945951277006457
aF0.0
aF0.016594472891549004
aF0.0
aa(lp177
F0.16144433303189323
aF0.07723917138032746
aF0.03458753214378179
aF0.7957842193248924
aa(lp178
F0.11208244470981107
aF0.0633700142433179
aF0.05267379494184874
aF0.8719013927221783
aa(lp179
F0.7435730657587953
aF0.0
aF0.017247770151560246
aF0.2734682555237047
aa(lp180
F0.827897790030779
aF0.06502426963067634
aF0.10774698463512683
aF0.0
aa(lp181
F0.24793515361700236
aF0.31656972137510886
aF0.40373303728512977
aF1.022414710842692
aa(lp182
F0.0
aF0.0
aF0.0
aF0.0
aa(lp183
F0.0
aF0.0
aF0.0
aF0.0
aa(lp184
F0.0
aF0.0
aF0.0
aF0.0
aa(lp185
F0.0
aF0.0
aF0.0
aF0.0
aa(lp186
F0.0
aF0.0
aF0.0
aF0.0
aa(lp187
F0.0
aF0.0
aF0.0
aF0.0
aa(lp188
F0.0
aF0.0
aF0.0
aF0.0
aa(lp189
F0.0
aF0.0
aF0.0
aF0.0
aa(lp190
F0.0
aF0.0
aF0.0
aF0.0
aa(lp191
F0.0
aF0.0
aF0.0
aF0.0
aa(lp192
F0.0
aF0.0
aF0.0
aF0.0
aa(lp193
F0.0
aF0.0
aF0.0
aF0.0
aa(lp194
F0.0
aF0.0
aF0.0
aF0.0
aa(lp195
F0.0
aF0.0
aF0.0
aF0.0
aa(lp196
F0.0
aF0.0
aF0.0
aF0.0
aa.