(lp0
(lp1
F0.0
aF0.0
aF0.0
aF0.0
aa(lp2
F0.0
aF0.0
aF0.0
aF0.0
aa(lp3
F0.0
aF0.0
aF0.0
aF0.0
aa(lp4
F0.0
aF0.0
aF0.0
aF0.0
aa(lp5
F0.0
aF0.0
aF0.0
aF0.0
aa(lp6
F0.0
aF0.0
aF0.0
aF0.0
aa(lp7
F0.0
aF0.0
aF0.0
aF0.0
aa(lp8
F0.0
aF0.0
aF0.0
aF0.0
aa(lp9
F0.0
aF0.0
aF0.0
aF0.0
aa(lp10
F0.0
aF0.0
aF0.0
aF0.0
aa(lp11
F0.0
aF0.0
aF0.0
aF0.0
aa(lp12
F0.0
aF0.0
aF0.0
aF0.0
aa(lp13
F0.0
aF0.0
aF0.0
aF0.0
aa(lp14
F0.0
aF0.0
aF0.0
aF0.0
aa(lp15
F0.0
aF0.0
aF0.0
aF0.0
aa(lp16
F0.0
aF0.0
aF0.0
aF0.0
aa(lp17
F0.13654989081662733
aF0.0
aF0.0
aF0.0
aa(lp18
F0.0
aF0.0
aF0.9600848112788645
aF0.0
aa(lp19
F1.5757444968237593
aF0.00033351702876862607
aF0.0
aF0.0
aa(lp20
F5.90237151498435
aF0.12142338432125468
aF0.45924611908047197
aF0.9043184041062586
aa(lp21
F6.4460524227811185
aF2.0681092081454464
aF0.37096294526743384
aF1.3427332318251324
aa(lp22
F6.734893259290601
aF0.0
aF0.5078022408157883
aF2.3270009506678133
aa(lp23
F7.400238076890514
aF1.0690935018164196
aF1.7887478261700835
aF0.26993029254831846
aa(lp24
F7.917827885585931
aF1.740359586132815
aF0.7353796826995869
aF1.691610763140039
aa(lp25
F8.687735979800332
aF1.8927202562089942
aF3.430539813643432
aF2.5412611258345326
aa(lp26
F9.07283417254971
aF2.952434872758107
aF3.0091934731340646
aF2.1310489395211487
aa(lp27
F0.0
aF0.0
aF0.0
aF0.0
aa(lp28
F0.0
aF0.0
aF0.0
aF0.0
aa(lp29
F0.0
aF0.0
aF0.0
aF0.0
aa(lp30
F1.833392001451568
aF0.0
aF0.0
aF0.00883038799891347
aa(lp31
F2.410234843735605
aF0.000672456182917237
aF-0.0005009047939727693
aF-0.00255383708438572
aa(lp32
F3.7608281949786715
aF0.22322467096519524
aF-0.03888864337670035
aF0.09769683959117965
aa(lp33
F3.7761361213537903
aF0.5445421140436436
aF0.026315698682982842
aF0.6776122655084067
aa(lp34
F0.6709553489788029
aF0.3330096299047165
aF-0.40139280186523735
aF5.268654542947195
aa(lp35
F0.719176222534506
aF3.7682337531287637
aF-0.27581481512129546
aF0.0
aa(lp36
F3.9103847894450396
aF3.409677225331367e-05
aF-0.12092115322475712
aF0.0
aa(lp37
F5.121072051360499
aF0.2744894746138129
aF0.0
aF0.0
aa(lp38
F5.583889869290037
aF0.16802867031649138
aF-0.04273338682340044
aF0.6458224473960238
aa(lp39
F7.019143876207857
aF0.585119338049107
aF0.0
aF1.0501761245631438
aa(lp40
F7.133864505293475
aF2.3114599419108717
aF2.5031725651127124
aF5.000042586940787
aa(lp41
F7.76091823226864
aF6.991885890720879
aF7.041401458581775
aF8.987507772083083
aa(lp42
F0.0
aF0.0
aF0.0
aF0.0
aa(lp43
F0.0
aF0.0
aF0.0
aF0.0
aa(lp44
F0.12034462540860615
aF-0.003076579465948191
aF-0.004275874908758574
aF1.3747857796897798
aa(lp45
F-0.17117635422768596
aF1.1729153504968504
aF0.17154491451597692
aF0.24627365493061099
aa(lp46
F-0.17997941546201912
aF-0.07451291979679844
aF-0.15586624165458757
aF2.9329439229502254
aa(lp47
F-0.19597011297876124
aF-0.2576667308018271
aF-0.24319701760606705
aF1.7270088589407449
aa(lp48
F-0.26051977277144006
aF0.08892284798007458
aF-0.209
aF2.1779890309364736
aa(lp49
F-0.1
aF-0.1
aF-0.2
aF1.6236140808202317
aa(lp50
F0.11505998443852006
aF-0.22432033695386175
aF-0.19924968367005763
aF-0.21800000000000003
aa(lp51
F-0.1
aF-0.05582731271575373
aF-0.1
aF1.8884798826903444
aa(lp52
F2.1646392974383244
aF0.0
aF-0.030138606026780968
aF0.0
aa(lp53
F2.2017307559693444
aF0.0
aF0.0
aF0.0
aa(lp54
F6.108095465341132
aF0.6535456866026481
aF1.5563957528280499
aF1.3531980093923568
aa(lp55
F6.279445393776585
aF5.603674909832252
aF5.606688505863402
aF7.194409449427755
aa(lp56
F0.0
aF0.0
aF0.0
aF0.0
aa(lp57
F0.0
aF0.0
aF0.0
aF0.0
aa(lp58
F-0.022662887598369597
aF0.010393918170189406
aF-0.015052893483281763
aF0.7043170127161358
aa(lp59
F-0.5146535806860195
aF0.002633016205918909
aF-0.03658399673811204
aF1.7492583500155743
aa(lp60
F-0.9955306572213393
aF0.7262488890899307
aF-0.40817511474310725
aF-0.31408917908539047
aa(lp61
F-0.9130495068899578
aF-0.8363806025723346
aF-0.8873157174376547
aF-0.42539696024160156
aa(lp62
F-0.56
aF-0.7038232327535947
aF-1.1013526310984332
aF-0.30553102443691293
aa(lp63
F-0.569461956659898
aF-0.41582
aF-0.6516580558215528
aF-0.36441772084316715
aa(lp64
F-0.46932128242016413
aF-0.5929048347564576
aF-0.5061
aF-0.5453014386565178
aa(lp65
F0.13658125517291506
aF-0.2
aF-0.2
aF-0.1
aa(lp66
F1.2027220416349855
aF-0.2
aF0.0
aF0.0
aa(lp67
F2.816949596865196
aF-0.019132775230466303
aF0.0
aF0.0
aa(lp68
F4.536029343792464
aF1.6565553260346728
aF0.5892645615836205
aF1.5994085109341867
aa(lp69
F5.0944993964436405
aF4.647128071022678
aF4.5831677146422285
aF6.130871754709459
aa(lp70
F0.0
aF0.0
aF0.0
aF0.0
aa(lp71
F0.0
aF0.0
aF0.0
aF0.0
aa(lp72
F-0.16432674766097094
aF-0.03470319356291218
aF-0.047421346305732366
aF0.8222450205656975
aa(lp73
F-0.8757409621858118
aF-0.1944926035590354
aF-0.16523798925807498
aF0.6112317742071339
aa(lp74
F-0.8337505879483864
aF-0.7672536187029654
aF-0.7168679526247116
aF-0.523441539037656
aa(lp75
F-1.4738862740067273
aF-1.3174306364816124
aF-1.4369126113760597
aF-1.4206186108189476
aa(lp76
F-1.4041798640300343
aF-1.1973558893450102
aF-1.275851276886848
aF-1.153848989
aa(lp77
F-1.2396680596788543
aF-1.218545411633372
aF-1.3847967543823003
aF-1.1334242963553989
aa(lp78
F-0.7160526967906572
aF-0.597
aF-0.6452772562204546
aF-0.7609610000000001
aa(lp79
F-0.299
aF-0.5325141
aF-0.2951743178130732
aF-0.2680305948618517
aa(lp80
F-0.0996104453702761
aF-0.1
aF-0.08575554600441432
aF0.21648649180988883
aa(lp81
F1.2296302806269273
aF0.0
aF0.0017779580571933972
aF0.0
aa(lp82
F3.6650336015411265
aF0.9454304052528439
aF0.7880782334852474
aF2.465998672531032
aa(lp83
F3.8414206881221755
aF3.481057758111167
aF3.7574196943660354
aF4.954385223964297
aa(lp84
F0.0
aF0.0
aF0.0
aF0.0
aa(lp85
F0.0
aF0.0
aF0.0
aF0.0
aa(lp86
F-0.0921723641441606
aF-0.027576519725661185
aF-0.07249866793151281
aF0.4632038704106959
aa(lp87
F-0.41446025958826993
aF0.09852908378711421
aF-0.19751879827335372
aF-0.11203331521242604
aa(lp88
F-0.8920517177860369
aF-0.17408668478086914
aF-0.6060609989585694
aF-0.6678138162854474
aa(lp89
F-1.270859325867255
aF-1.0585096622866397
aF-1.1924129263357188
aF-1.2902943202349442
aa(lp90
F-1.1630847000000002
aF-1.1333030784927318
aF-1.2970914580083257
aF-1.3412895757872043
aa(lp91
F-1.1113410000000001
aF-1.06763412
aF-1.3255848627604354
aF-1.1501253887830045
aa(lp92
F-0.6167307093834397
aF-0.5142
aF-0.8038910367694837
aF-0.507
aa(lp93
F0.05882775930818508
aF-0.28996317096691826
aF-0.2690097885189176
aF-0.21800000000000003
aa(lp94
F0.8691033591339606
aF0.0
aF0.0
aF0.0
aa(lp95
F1.2750907247427758
aF-0.06153031941851537
aF0.0
aF0.0
aa(lp96
F0.0
aF0.0
aF0.6669421639052192
aF3.5067372279162594
aa(lp97
F3.201681762208163
aF3.1738820684379534
aF2.854497076737737
aF3.9184049654615105
aa(lp98
F0.0
aF0.0
aF0.0
aF0.0
aa(lp99
F0.0
aF0.0
aF0.0
aF0.0
aa(lp100
F-0.09436992108806012
aF0.028615640151709455
aF0.16259000576464158
aF-0.08609615427703608
aa(lp101
F-0.4176389529265197
aF-0.21407571294044292
aF-0.2595849205234746
aF-0.12498928253800559
aa(lp102
F-0.9982153876615723
aF-0.3373023626302897
aF-0.6340949313804687
aF-0.6386154264043697
aa(lp103
F-1.2795213575274933
aF-1.136356058503793
aF-1.052820439467852
aF-1.2097782371194874
aa(lp104
F-1.1281331996234765
aF-1.0271898019977121
aF-1.0637480000000001
aF-1.039746
aa(lp105
F-1.0836472194083184
aF-1.017343881914642
aF-1.0319831262681518
aF-1.09886061
aa(lp106
F-0.3803363516077736
aF-0.398
aF-0.4226902994586462
aF-0.5457285223917598
aa(lp107
F-0.17644381316563845
aF-0.3151995554540108
aF-0.04612100443091636
aF-0.16105079902482938
aa(lp108
F0.3094397691243191
aF0.0
aF0.02687940829720516
aF0.0
aa(lp109
F1.0366763314934333
aF0.0
aF0.0
aF0.0
aa(lp110
F2.203914473967294
aF0.20313987198553818
aF0.46841139894680683
aF0.9592478133934326
aa(lp111
F2.4965736088302664
aF2.267510574078581
aF2.383975553376472
aF2.9756899384391766
aa(lp112
F0.0
aF0.0
aF0.0
aF0.0
aa(lp113
F0.0
aF0.0
aF0.0
aF0.0
aa(lp114
F-0.07960375043599718
aF-0.02900448497860289
aF0.22096064898377074
aF-0.025750016661630726
aa(lp115
F-0.40416368256616664
aF-0.16424404632893091
aF0.18344801773460465
aF-0.09186221857966612
aa(lp116
F-0.8711005524268187
aF0.07497072180594562
aF-0.49788158192715826
aF-0.3733874795143539
aa(lp117
F-0.8086699367830169
aF-0.7757665779894181
aF-0.8053758623943745
aF-0.7779652599904882
aa(lp118
F-0.8184706399177488
aF-0.8940984272192061
aF-0.7182607348265844
aF-1.0057753614601486
aa(lp119
F-0.8561380920089257
aF-0.608292173542369
aF-0.6622705741718152
aF-0.9045577412512669
aa(lp120
F-0.33292132838759714
aF-0.3971
aF-0.27002833457072994
aF-0.39709999784926586
aa(lp121
F-0.047668606600047056
aF0.0
aF-0.0960697439653003
aF0.0
aa(lp122
F0.42357697198838584
aF0.0
aF0.0
aF0.0
aa(lp123
F0.7899513442360399
aF0.0
aF0.0
aF0.0
aa(lp124
F1.759934921581024
aF0.0
aF0.660511210340355
aF0.22377685055261315
aa(lp125
F2.031620201073169
aF1.7378688750199829
aF1.9349387259739772
aF2.5266628509519236
aa(lp126
F0.0
aF0.0
aF0.0
aF0.0
aa(lp127
F0.0
aF0.0
aF0.0
aF0.0
aa(lp128
F0.01763475351476978
aF0.016437577784082315
aF0.27491229607563955
aF-0.00033619475847756347
aa(lp129
F-0.27661544805318533
aF-0.01539572772715967
aF0.23464190052668438
aF-0.058452642983084495
aa(lp130
F-0.443689729609816
aF-0.2662497054061236
aF0.2690706174162312
aF-0.27857857535239217
aa(lp131
F-0.2880932158327877
aF-0.3695579791063133
aF0.1760544096038602
aF-0.34618160954637833
aa(lp132
F-0.199
aF-0.20709938325752617
aF0.040407405756713456
aF-0.4960796237680883
aa(lp133
F-0.19764260445887807
aF-0.1
aF-0.2341778982381412
aF-0.2179099997849266
aa(lp134
F-0.1330873179450562
aF-0.1
aF-0.2868021027019965
aF-0.2989844019269882
aa(lp135
F-0.07063771783986952
aF-0.028999874620089128
aF0.07131697476420677
aF0.0
aa(lp136
F0.30514928581369327
aF0.0
aF0.0
aF0.0
aa(lp137
F0.9222334203263368
aF0.0
aF0.0
aF0.0
aa(lp138
F1.489666160313774
aF0.2151289796099991
aF0.26252831070600063
aF0.5744121324131504
aa(lp139
F1.6028888354144362
aF1.4438741192481994
aF1.468819952094947
aF1.7942668760568148
aa(lp140
F0.0
aF0.0
aF0.0
aF0.0
aa(lp141
F0.0
aF0.0
aF0.0
aF0.0
aa(lp142
F0.3236491075872305
aF0.0
aF0.0
aF0.022693908653265628
aa(lp143
F0.09734822839131874
aF0.0382259347459019
aF0.43545271567549665
aF-0.014827751249854372
aa(lp144
F0.043061504631977984
aF0.05291346696085614
aF0.4423141262504115
aF-0.10315594445897375
aa(lp145
F0.0369329219633253
aF0.031221817686733246
aF0.4705430763056244
aF-0.2495923641584803
aa(lp146
F-0.023910006348473907
aF-0.04437749015666484
aF0.4261840677885079
aF-0.35289904936327227
aa(lp147
F-0.057834928932816734
aF0.2441880227042114
aF-0.10899234122418623
aF-0.10688021027019966
aa(lp148
F0.07609436973580014
aF-0.08999713209542662
aF0.38180700281257834
aF-0.19330873179450564
aa(lp149
F0.6265204641237128
aF0.09968775019306643
aF0.049754846249083884
aF0.022089831046732674
aa(lp150
F0.9297364350246924
aF0.0
aF0.0
aF0.0428967234455436
aa(lp151
F1.1924942229688982
aF0.1294936445890506
aF0.29757443231165054
aF0.0
aa(lp152
F1.1997057816743562
aF0.25996113442630064
aF0.5136438509875672
aF0.473559318956828
aa(lp153
F1.2937388997367725
aF1.2039991589881214
aF1.1901633100285778
aF1.4775656365742986
aa(lp154
F0.0
aF0.0
aF0.0
aF0.0
aa(lp155
F0.0
aF0.0
aF0.0
aF0.0
aa(lp156
F0.44741296132042163
aF0.06474412788742931
aF0.20995017101464064
aF0.09832520629730672
aa(lp157
F0.48120489155002144
aF0.1663746727511002
aF0.070399139048065
aF3.4347828895588683e-07
aa(lp158
F0.5239092287777263
aF0.17831171304627877
aF0.15684915394969956
aF0.09724588102388243
aa(lp159
F0.5785294499854179
aF0.13901603227785161
aF0.26481533898538356
aF0.14584033437660252
aa(lp160
F0.6112391502254099
aF0.2762158754730896
aF0.15852503646136606
aF0.04387709111000893
aa(lp161
F0.6693148727734684
aF0.25227136745310824
aF0.27101387871348626
aF0.1077399555405333
aa(lp162
F0.7362017891325177
aF0.28521410158823257
aF0.31010512045845345
aF0.12800206637009925
aa(lp163
F0.8271897933879021
aF0.43789033895045665
aF0.40377763790579424
aF0.36075944250106073
aa(lp164
F0.9605727194033834
aF0.4653840718518318
aF0.3993957207487694
aF0.3243027300281929
aa(lp165
F1.0220557121235905
aF0.22995434268254641
aF0.3613032544472379
aF0.5503747852372385
aa(lp166
F0.960098213364075
aF0.6338265828075621
aF0.6376942944097055
aF1.169565803714042
aa(lp167
F1.020624140859323
aF0.9426846245413414
aF0.9615437502596387
aF1.1398613951356744
aa(lp168
F0.0
aF0.0
aF0.0
aF0.0
aa(lp169
F0.0
aF0.0
aF0.0
aF0.0
aa(lp170
F0.3943291346481845
aF0.03463852994937979
aF0.13873165968119222
aF0.11769759208761282
aa(lp171
F0.42466917916795277
aF0.07256910205167254
aF0.08978836814653414
aF0.1472192267070606
aa(lp172
F0.4694572725528666
aF0.09602963559786248
aF0.1796487143656057
aF0.24013106376106935
aa(lp173
F0.504665105947109
aF0.17331325055623897
aF0.1513337272972117
aF0.0
aa(lp174
F0.5556156956750032
aF0.23000478859070764
aF0.057932284668429965
aF0.26139644478487184
aa(lp175
F0.6045676272939786
aF0.25903672619279305
aF0.3229175226646114
aF0.17291113088444013
aa(lp176
F0.1322959697963475
aF0.27521322430077566
aF0.13029686522469178
aF0.6879458995806725
aa(lp177
F0.6799258072872689
aF0.17278125705214425
aF0.2324566124206014
aF0.25017293819762276
aa(lp178
F0.7193826447163162
aF0.19387089032802515
aF0.16233850639089642
aF0.21778204596474973
aa(lp179
F0.8048537601778435
aF0.2278653505652243
aF0.1466002792455467
aF0.37796422315165423
aa(lp180
F0.809765310341727
aF0.2951048329261007
aF0.11461693197479735
aF0.5668547340040876
aa(lp181
F0.3222532351785031
aF0.5338230906099106
aF0.5854750352643867
aF1.008766859617694
aa(lp182
F0.0
aF0.0
aF0.0
aF0.0
aa(lp183
F0.0
aF0.0
aF0.0
aF0.0
aa(lp184
F0.0
aF0.0
aF0.0
aF0.0
aa(lp185
F0.0
aF0.0
aF0.0
aF0.0
aa(lp186
F0.0
aF0.0
aF0.0
aF0.0
aa(lp187
F0.0
aF0.0
aF0.0
aF0.0
aa(lp188
F0.0
aF0.0
aF0.0
aF0.0
aa(lp189
F0.0
aF0.0
aF0.0
aF0.0
aa(lp190
F0.0
aF0.0
aF0.0
aF0.0
aa(lp191
F0.0
aF0.0
aF0.0
aF0.0
aa(lp192
F0.0
aF0.0
aF0.0
aF0.0
aa(lp193
F0.0
aF0.0
aF0.0
aF0.0
aa(lp194
F0.0
aF0.0
aF0.0
aF0.0
aa(lp195
F0.0
aF0.0
aF0.0
aF0.0
aa(lp196
F0.0
aF0.0
aF0.0
aF0.0
aa.