(lp0
(lp1
F0.0
aF0.0
aF0.0
aF0.0
aa(lp2
F0.0
aF0.0
aF0.0
aF0.0
aa(lp3
F0.0
aF0.0
aF0.0
aF0.0
aa(lp4
F0.0
aF0.0
aF0.0
aF0.0
aa(lp5
F0.0
aF0.0
aF0.0
aF0.0
aa(lp6
F0.0
aF0.0
aF0.0
aF0.0
aa(lp7
F0.0
aF0.0
aF0.0
aF0.0
aa(lp8
F0.0
aF0.0
aF0.0
aF0.0
aa(lp9
F0.0
aF0.0
aF0.0
aF0.0
aa(lp10
F0.0
aF0.0
aF0.0
aF0.0
aa(lp11
F0.0
aF0.0
aF0.0
aF0.0
aa(lp12
F0.0
aF0.0
aF0.0
aF0.0
aa(lp13
F0.0
aF0.0
aF0.0
aF0.0
aa(lp14
F0.0
aF0.0
aF0.0
aF0.0
aa(lp15
F0.0
aF0.0
aF0.0
aF0.0
aa(lp16
F0.0
aF0.0
aF0.0
aF0.0
aa(lp17
F0.0024773979815151284
aF0.0
aF0.0
aF0.0
aa(lp18
F0.8365837743631144
aF0.0
aF0.0
aF0.0
aa(lp19
F2.3331176655755765
aF0.0
aF0.0
aF0.0
aa(lp20
F5.287741694002175
aF0.15038076226487063
aF0.006517899577858196
aF0.4487421665757005
aa(lp21
F5.951519289292741
aF0.2385403644866666
aF0.18147205981301368
aF0.32662383848719867
aa(lp22
F6.719099710321814
aF0.15584604992483692
aF0.8076999248735923
aF0.5388862079615611
aa(lp23
F7.220279869818562
aF0.6051715925368515
aF0.8030171023706518
aF0.6424220809777403
aa(lp24
F8.033249703874278
aF0.6424929412368757
aF0.3305264323236995
aF1.4319975408644576
aa(lp25
F8.948781712827452
aF1.3759640741721073
aF2.791700342853537
aF0.7339804167655269
aa(lp26
F9.468617667680089
aF3.901531074883952
aF5.592254028449605
aF5.467891432506418
aa(lp27
F0.0
aF0.0
aF0.0
aF0.0
aa(lp28
F0.0
aF0.0
aF0.0
aF0.0
aa(lp29
F0.0
aF0.0
aF0.0
aF0.0
aa(lp30
F0.9325526844281427
aF0.0
aF0.0
aF0.0
aa(lp31
F1.7428822082229236
aF0.0
aF-0.023077575212909224
aF0.03312105074456449
aa(lp32
F3.0340671744311156
aF0.2484930548082973
aF0.03753940601665777
aF0.40224356323408356
aa(lp33
F3.199686866340538
aF0.0
aF-0.07157186984877924
aF0.16685102944861924
aa(lp34
F0.07657331434234496
aF0.01943566838658667
aF-0.1979691961800368
aF4.590083415629982
aa(lp35
F0.015716640975944385
aF-0.09962544371922548
aF-0.12682733131770207
aF4.686659672763118
aa(lp36
F3.0148515412632815
aF0.0
aF-0.18903847848245278
aF0.3547159202420643
aa(lp37
F5.053229351946332
aF0.0
aF0.6121160143436666
aF0.5886977460032639
aa(lp38
F5.737232493508977
aF0.039857500985372905
aF0.1368871275676397
aF1.3098772616766334
aa(lp39
F7.85996697026378
aF1.5277012026828491
aF0.2512433542876387
aF0.0
aa(lp40
F2.780876540980052
aF2.0566371655707223
aF1.8031714911528813
aF9.2130214371699
aa(lp41
F7.881842778065753
aF7.830074286834156
aF7.294488955753258
aF9.370694050979607
aa(lp42
F0.0
aF0.0
aF0.0
aF0.0
aa(lp43
F0.0
aF0.0
aF0.0
aF0.0
aa(lp44
F-0.007926520346729589
aF-0.016287192077279033
aF-0.0047285248854320745
aF0.5439151086210141
aa(lp45
F-0.23257008705866355
aF0.1413695799856021
aF-0.11698156174209008
aF1.6949470547115753
aa(lp46
F-0.39838631781240574
aF0.9499352945110702
aF-0.3854063899062849
aF0.2890724817412818
aa(lp47
F-0.4605270676680799
aF-0.36101653084165497
aF-0.421319
aF1.3907297973397634
aa(lp48
F-0.4079299772368453
aF-0.4548484641044158
aF-0.6866232107934341
aF2.334494549859592
aa(lp49
F-0.4026038535217698
aF-0.44452773807671386
aF-0.4052
aF0.8784883094756738
aa(lp50
F-0.2385380291220479
aF-0.199
aF-0.2171
aF0.5804470738381511
aa(lp51
F-0.0295827775714294
aF-0.10620248276325667
aF-0.05416975711601213
aF1.3267197218723514
aa(lp52
F2.433618792232285
aF0.0
aF0.0
aF0.0
aa(lp53
F3.6381502878689664
aF0.0
aF0.0
aF0.0
aa(lp54
F2.2499463131917823
aF0.06060303197163211
aF0.0
aF7.645222471396782
aa(lp55
F6.474777473183635
aF6.605230100728857
aF5.994309374111596
aF7.701163670677332
aa(lp56
F0.0
aF0.0
aF0.0
aF0.0
aa(lp57
F0.0
aF0.0
aF0.0
aF0.0
aa(lp58
F-0.002627873351254917
aF-0.02340068814133517
aF-0.03271052910325683
aF0.746383204449125
aa(lp59
F-0.2638325160693447
aF-0.1251631751911139
aF-0.14721901280058533
aF0.7268735139228126
aa(lp60
F-0.9980390844523206
aF-0.05973824524780551
aF-0.4406716359762228
aF-0.518543756412492
aa(lp61
F-0.7435270045025532
aF-0.7573108657592458
aF-1.030166701087808
aF-0.34379128532143566
aa(lp62
F-1.1522344818686843
aF-0.9789475241653922
aF-1.2173110633583908
aF-0.5352987093706347
aa(lp63
F-0.8946004569641239
aF-0.8037437276579776
aF-0.77502
aF-0.7897904563377077
aa(lp64
F-0.40800000000000003
aF-0.6252697029153281
aF-0.4193812680585114
aF-0.48279618287038767
aa(lp65
F-0.3574540099126827
aF-0.7520712985603115
aF-0.398
aF-0.24988114150631785
aa(lp66
F1.113188520182775
aF0.0
aF-0.1
aF0.0
aa(lp67
F2.7548155551402496
aF0.0
aF0.0
aF0.0
aa(lp68
F4.5355555085907335
aF0.3477867407063091
aF0.8013237920628553
aF1.2766127013534536
aa(lp69
F4.907967993798188
aF4.7335410462571055
aF4.505106040670937
aF5.29730195373981
aa(lp70
F0.0
aF0.0
aF0.0
aF0.0
aa(lp71
F0.0
aF0.0
aF0.0
aF0.0
aa(lp72
F-0.06731261528734613
aF-0.06495328144787706
aF-0.06357532789522775
aF0.5033054677721163
aa(lp73
F-0.8407006586727793
aF-0.03119356995422548
aF-0.2603288228185045
aF-0.24501043891173918
aa(lp74
F-0.6090735861772271
aF-0.29244130811862906
aF-0.639111741529252
aF-0.5713229737666813
aa(lp75
F-1.649006585513785
aF-1.5257399972214047
aF-1.5076369275999113
aF-1.597486196068686
aa(lp76
F-1.4717464218609726
aF-1.4953978017705132
aF-1.450102110127974
aF-1.5072222268687818
aa(lp77
F-1.2427112158567872
aF-1.1246343712818136
aF-1.1420060110130734
aF-1.0686022414718428
aa(lp78
F-0.6640824571232281
aF-0.6146337035453426
aF-0.6136972285058531
aF-0.7586925875817594
aa(lp79
F-0.2573198207389693
aF-0.48
aF-0.3971
aF-0.4790169287433361
aa(lp80
F-0.05569645094570886
aF-0.22455256301830248
aF-0.10373237737746954
aF0.14859718512729247
aa(lp81
F1.2658632520933546
aF0.0
aF0.13555630091402518
aF0.0
aa(lp82
F3.5168613895321177
aF0.36035804043699615
aF0.7644306760993209
aF0.5387735336842031
aa(lp83
F4.157012249816998
aF3.8730036090867332
aF3.58742232701398
aF4.650187475916667
aa(lp84
F0.0
aF0.0
aF0.0
aF0.0
aa(lp85
F0.0
aF0.0
aF0.0
aF0.0
aa(lp86
F-0.2141230330372773
aF-0.09180542347408599
aF-0.09669234204975402
aF0.204139419706141
aa(lp87
F-0.41792996381927144
aF-0.2864230841519713
aF-0.3777702613180164
aF-0.23509700845453005
aa(lp88
F-1.2729516598470159
aF-0.6930905791978003
aF-0.8775891076928996
aF-0.889818628742937
aa(lp89
F-1.725831236124169
aF-1.7582484656944186
aF-1.6901892872228128
aF-1.6118084913830086
aa(lp90
F-1.6755293004385845
aF-1.7031405350577673
aF-1.7184786459695782
aF-1.8080929800096754
aa(lp91
F-1.171086613089741
aF-1.17787653182
aF-1.3359624261806409
aF-1.3857239531627084
aa(lp92
F-0.8558184303256777
aF-0.8866218
aF-0.7215934198620118
aF-0.696702
aa(lp93
F-0.218343943209402
aF-0.59402
aF-0.5946575578969584
aF-0.5508265026703808
aa(lp94
F0.0690572373884831
aF-0.30800000000000005
aF-0.07128182817800052
aF-0.1
aa(lp95
F1.818944574233671
aF0.0
aF0.20782036169026152
aF0.0
aa(lp96
F2.8598971519181244
aF0.44694341487718026
aF0.3145126987594151
aF0.932338170850581
aa(lp97
F3.2180815268607827
aF2.939980834962639
aF2.94924173572931
aF3.821806413797535
aa(lp98
F0.0
aF0.0
aF0.0
aF0.0
aa(lp99
F0.0
aF0.0
aF0.0
aF0.0
aa(lp100
F-0.1286284380745526
aF-0.06052453832081006
aF0.21961347942141762
aF-0.06860794810895814
aa(lp101
F-0.422814906273578
aF-0.2748006368166097
aF-0.10498436825861451
aF-0.33183801223368603
aa(lp102
F-0.9461960911323225
aF-0.38402157968073397
aF-0.6887749562940769
aF-0.8134717771908434
aa(lp103
F-1.5805333109886428
aF-1.4541245473444098
aF-1.6618255402558073
aF-1.6042096010828546
aa(lp104
F-1.5235763521619619
aF-1.5412673144911102
aF-1.5954234164687282
aF-1.6953038689797189
aa(lp105
F-0.8604278582946447
aF-0.9783756199999749
aF-0.8966058277900282
aF-1.032442058
aa(lp106
F-0.7461470359178222
aF-0.8934443303952876
aF-0.8171514102795426
aF-0.7643794814396057
aa(lp107
F0.1558120843798146
aF-0.29538670807329015
aF-0.20455956023232813
aF-0.21800000000000003
aa(lp108
F0.7855172744308192
aF0.0
aF0.0
aF0.0
aa(lp109
F1.9471798055446112
aF0.0
aF0.0
aF0.21610114999584285
aa(lp110
F2.5417361297551073
aF0.8690523201152315
aF0.9380389879735114
aF1.822000361655774
aa(lp111
F2.5962087511410226
aF2.371104332576128
aF2.305450033211135
aF3.0834629209047213
aa(lp112
F0.0
aF0.0
aF0.0
aF0.0
aa(lp113
F0.0
aF0.0
aF0.0
aF0.0
aa(lp114
F-0.04392229677119201
aF0.032604085185185136
aF0.23896479997796888
aF-0.049207177973153673
aa(lp115
F-0.4480293109285013
aF-0.08582710947059022
aF0.059092787497948704
aF-0.17604012815396802
aa(lp116
F-1.406055439392729
aF-0.294624179047115
aF-0.7086278145293863
aF-0.6520829605977201
aa(lp117
F-0.9639871931257165
aF-0.8657595905114981
aF-0.8061992474795869
aF-0.8806667066133103
aa(lp118
F-1.2236225777255632
aF-0.9883086453127015
aF-1.2401143635306857
aF-1.0718910727790028
aa(lp119
F-0.4687747532225353
aF-0.608771
aF-0.4943984896868067
aF-0.5227171257616285
aa(lp120
F-0.3451012349508764
aF-0.398
aF-0.4505382813754235
aF-0.4231438635879983
aa(lp121
F0.3906352386125127
aF-0.1
aF0.0
aF0.0
aa(lp122
F0.8554257263730853
aF0.0
aF0.0
aF0.0
aa(lp123
F1.6554330889442346
aF0.044081603035714005
aF0.05891666420634273
aF0.19762130357698307
aa(lp124
F0.8941504338293935
aF0.7426244894538985
aF0.5045983715227825
aF2.37806561515243
aa(lp125
F2.0294432887481513
aF2.0039828094347945
aF1.993524418048326
aF2.2952655436590677
aa(lp126
F0.0
aF0.0
aF0.0
aF0.0
aa(lp127
F0.0
aF0.0
aF0.0
aF0.0
aa(lp128
F0.013099350027624457
aF0.007950857611807213
aF0.26434600379609263
aF0.0067594501715599045
aa(lp129
F-0.2466773764226976
aF-0.05754162226997643
aF0.4212685563418069
aF-0.058357279400765405
aa(lp130
F-0.3221281000338512
aF-0.12005732137356397
aF0.24057909935707403
aF-0.2833680096058227
aa(lp131
F-0.1
aF-0.08633556589700978
aF0.20991464875639448
aF-0.13893836590386965
aa(lp132
F-0.18226921818875708
aF-0.2681977777811213
aF-0.2034299249968582
aF-0.3750961140093793
aa(lp133
F-0.1
aF-0.1
aF0.1369714219125412
aF-0.209
aa(lp134
F-0.1
aF-0.3167450127378221
aF-0.15190739328804964
aF-0.22941810471640245
aa(lp135
F-0.1
aF-0.19
aF0.00035562661349505294
aF0.0
aa(lp136
F0.5620513343942436
aF0.0
aF0.0
aF0.0
aa(lp137
F1.2543233671401697
aF2.338634613686246e-06
aF0.0
aF0.0
aa(lp138
F0.5875517270266901
aF0.33819750774292384
aF0.4429308054544678
aF2.031196712329833
aa(lp139
F1.6551787153746145
aF1.7083309062638552
aF1.5454432248068806
aF1.6639457264996993
aa(lp140
F0.0
aF0.0
aF0.0
aF0.0
aa(lp141
F0.0
aF0.0
aF0.0
aF0.0
aa(lp142
F0.34416110987395077
aF0.03870602335579325
aF0.0
aF0.011181271493283454
aa(lp143
F0.49179182073387073
aF0.03209232498703775
aF0.053696499624377315
aF0.07314983017690395
aa(lp144
F0.0788538724063681
aF0.06420152269554501
aF0.5772884345001
aF-0.12911474791648103
aa(lp145
F-0.12279770017325924
aF-0.03951235594982543
aF0.6352437920652525
aF-0.18997241089136196
aa(lp146
F-0.0787326442339073
aF0.34163756815234214
aF-0.009795308650714207
aF-0.41018061014830975
aa(lp147
F-0.08696849893717769
aF-0.006997454798365418
aF0.4566176348626148
aF-0.1
aa(lp148
F-0.06396246288538299
aF-0.06585301180245723
aF0.6940165358832837
aF-0.09998313060379346
aa(lp149
F0.5717160162269533
aF0.0
aF0.10616336470278456
aF0.0
aa(lp150
F1.3764568733111908
aF0.052483312166616704
aF0.13892538126987453
aF0.17599432654092198
aa(lp151
F1.453472645207856
aF0.5090062623034399
aF0.3646147799415531
aF0.28203298359517687
aa(lp152
F0.6932255392817335
aF1.0817688678996376
aF0.2858843635502155
aF1.6868662071645546
aa(lp153
F1.271503843818452
aF1.2742129539184996
aF1.2339791490249576
aF1.3766728766126866
aa(lp154
F0.0
aF0.0
aF0.0
aF0.0
aa(lp155
F0.0
aF0.0
aF0.0
aF0.0
aa(lp156
F0.5009750237889892
aF0.12847904384279005
aF0.1583806551855449
aF0.08214277939667186
aa(lp157
F2.429712731203572e-06
aF0.0504575812976768
aF0.5502936500239568
aF0.09623972368743934
aa(lp158
F0.10235879353028732
aF0.04540761289058733
aF0.5960902065319963
aF0.0593365547926129
aa(lp159
F0.7638542635391239
aF0.10299490947017534
aF0.050176543956804064
aF0.08815792232011577
aa(lp160
F0.7981365597207978
aF0.06010563783662062
aF0.14608218187936406
aF0.06581365428564877
aa(lp161
F0.9606512126675141
aF0.0987750650112102
aF0.1589423453856976
aF0.10203433370832038
aa(lp162
F0.26255516134775464
aF0.13574719494461496
aF0.8259534780158165
aF0.21833589204088139
aa(lp163
F1.0783732721971235
aF0.13636779677936478
aF0.24912782582284176
aF0.07017809395999478
aa(lp164
F0.33861847746517104
aF0.24273592478936776
aF0.2854855322737654
aF1.2229938402795306
aa(lp165
F0.7290685834030586
aF0.749449260403809
aF0.2664409756802939
aF1.2872769243195574
aa(lp166
F1.0021470985786496
aF0.83849969357678
aF0.7832693660780903
aF0.9233732199348894
aa(lp167
F1.050719857386254
aF0.9671360629335504
aF0.9272772946357456
aF1.1332066873752187
aa(lp168
F0.0
aF0.0
aF0.0
aF0.0
aa(lp169
F0.0
aF0.0
aF0.0
aF0.0
aa(lp170
F0.55952192464956
aF0.07450832816391995
aF0.22933751084196127
aF0.16249852649972626
aa(lp171
F0.5897264622338092
aF0.08798992943826511
aF0.18200353542902584
aF0.16302037906169795
aa(lp172
F0.6465872638973563
aF0.3106605228883286
aF0.268243079049343
aF0.10984940596372508
aa(lp173
F0.6949111919548243
aF0.4020171912026831
aF0.1554490401337245
aF0.2153956103183858
aa(lp174
F0.7208136544880079
aF0.2882027868847853
aF0.29374911791644076
aF0.26431306191062026
aa(lp175
F0.7906290267660135
aF0.28073106424971817
aF0.3058214733836334
aF0.2957837070686828
aa(lp176
F0.8132558880753085
aF0.2986706606667734
aF0.5994316965601041
aF0.5695838476348863
aa(lp177
F0.8831435064969239
aF0.5574508396379263
aF0.40217355871278104
aF0.5744956320718878
aa(lp178
F0.9195535137018715
aF0.6593696716444055
aF0.6518443280471975
aF0.6546503504638699
aa(lp179
F0.4286240056530565
aF0.6812624593751473
aF0.6772583580158733
aF1.0459796766136902
aa(lp180
F0.40954857851576826
aF0.24156812507972109
aF0.5717877720776567
aF0.9989249115532485
aa(lp181
F0.40166878433547076
aF0.06706031652956461
aF0.2789474952614819
aF1.007278958036524
aa(lp182
F0.0
aF0.0
aF0.0
aF0.0
aa(lp183
F0.0
aF0.0
aF0.0
aF0.0
aa(lp184
F0.0
aF0.0
aF0.0
aF0.0
aa(lp185
F0.0
aF0.0
aF0.0
aF0.0
aa(lp186
F0.0
aF0.0
aF0.0
aF0.0
aa(lp187
F0.0
aF0.0
aF0.0
aF0.0
aa(lp188
F0.0
aF0.0
aF0.0
aF0.0
aa(lp189
F0.0
aF0.0
aF0.0
aF0.0
aa(lp190
F0.0
aF0.0
aF0.0
aF0.0
aa(lp191
F0.0
aF0.0
aF0.0
aF0.0
aa(lp192
F0.0
aF0.0
aF0.0
aF0.0
aa(lp193
F0.0
aF0.0
aF0.0
aF0.0
aa(lp194
F0.0
aF0.0
aF0.0
aF0.0
aa(lp195
F0.0
aF0.0
aF0.0
aF0.0
aa(lp196
F0.0
aF0.0
aF0.0
aF0.0
aa.