(lp0
(lp1
F0.0
aF0.0
aF0.0
aF0.0
aa(lp2
F0.0
aF0.0
aF0.0
aF0.0
aa(lp3
F0.0
aF0.0
aF0.0
aF0.0
aa(lp4
F0.0
aF0.0
aF0.0
aF0.0
aa(lp5
F0.0
aF0.0
aF0.0
aF0.0
aa(lp6
F0.0
aF0.0
aF0.0
aF0.0
aa(lp7
F0.0
aF0.0
aF0.0
aF0.0
aa(lp8
F0.0
aF0.0
aF0.0
aF0.0
aa(lp9
F0.0
aF0.0
aF0.0
aF0.0
aa(lp10
F0.0
aF0.0
aF0.0
aF0.0
aa(lp11
F0.0
aF0.0
aF0.0
aF0.0
aa(lp12
F0.0
aF0.0
aF0.0
aF0.0
aa(lp13
F0.0
aF0.0
aF0.0
aF0.0
aa(lp14
F0.0
aF0.0
aF0.0
aF0.0
aa(lp15
F0.0
aF0.0
aF0.0
aF0.0
aa(lp16
F3.1736741082233066e-06
aF0.0
aF0.0
aF0.0
aa(lp17
F0.014570151722686366
aF0.0
aF0.0
aF0.0
aa(lp18
F0.08999286272039293
aF1.6824937406482944e-06
aF0.0
aF0.0
aa(lp19
F0.01637890356492706
aF0.0
aF0.2639648851104516
aF0.003928985742783108
aa(lp20
F0.35340573248909535
aF0.0
aF0.12757862383982407
aF0.0
aa(lp21
F0.5788817843864771
aF3.32099440867791e-05
aF0.0
aF0.0
aa(lp22
F1.3332770807696384
aF0.10083474064018337
aF0.0
aF0.0
aa(lp23
F1.968832646862849
aF0.0
aF0.0
aF0.13031040204098163
aa(lp24
F2.499069015316579
aF0.06397977797580053
aF0.0
aF0.17281682981865734
aa(lp25
F0.5382700077361877
aF0.24806700292705586
aF4.521456434457755
aF0.02468780527145815
aa(lp26
F2.833553832903287
aF0.0
aF0.22340111533272486
aF0.7768756952939286
aa(lp27
F0.4234490082425031
aF0.4039515345060444
aF4.28233026021981
aF0.5894671730779668
aa(lp28
F0.0
aF0.0
aF0.0
aF0.0
aa(lp29
F0.0
aF0.0
aF0.0
aF0.0
aa(lp30
F0.09125736477615481
aF0.0
aF0.001663101206616259
aF0.0
aa(lp31
F0.5715560115738898
aF0.0022800967252132507
aF0.000987577721874042
aF0.0
aa(lp32
F0.13996116022158384
aF0.19755056056309256
aF-0.33521902087330313
aF0.010148105720546566
aa(lp33
F1.3564179695497238
aF-0.04085249758470608
aF-0.15338054610177118
aF-0.05249964785652365
aa(lp34
F1.7659571700773364
aF0.0
aF0.0
aF0.02544213928821164
aa(lp35
F2.7175897213819153
aF0.0
aF0.08187875396044167
aF0.0973427596021478
aa(lp36
F3.2255274185869625
aF0.0
aF0.0
aF0.0
aa(lp37
F3.8397141155000645
aF0.0029321664464226974
aF0.002166110942283961
aF0.0
aa(lp38
F5.662433912026627
aF0.0
aF0.0
aF1.0
aa(lp39
F5.299259301395359
aF0.8689916181992939
aF0.7830535469278445
aF0.018873733634267982
aa(lp40
F1.0818763740953896
aF0.9784653815058892
aF6.776470006335849
aF0.4432531962764847
aa(lp41
F2.5061297755572274
aF3.7711428890292127
aF5.655705294197145
aF2.8591419890069316
aa(lp42
F0.0
aF0.0
aF0.0
aF0.0
aa(lp43
F0.0
aF0.0
aF0.0
aF0.0
aa(lp44
F5.2751058077466e-05
aF0.020030588727280176
aF-0.0058782360578072445
aF0.22566350720627054
aa(lp45
F-0.15428621873040646
aF0.07970906442212161
aF-0.03618376439453682
aF-0.004509974334060021
aa(lp46
F-0.181
aF0.14265216352223686
aF-0.14652159154218275
aF-0.09477682601134127
aa(lp47
F-0.19
aF-0.18909954272792784
aF-0.41637971
aF0.4255584084036863
aa(lp48
F-0.27458542268772274
aF-0.2881
aF-0.4158119
aF0.21332869097791252
aa(lp49
F-0.1
aF-0.1
aF-0.2
aF0.7184309716371687
aa(lp50
F0.6223090935016389
aF-0.1
aF-0.40700000000000003
aF-0.1
aa(lp51
F-0.1
aF-0.1
aF-0.2
aF1.9481582900495507
aa(lp52
F5.614895934621121
aF0.0
aF0.0
aF0.0
aa(lp53
F0.0
aF0.0
aF0.0
aF0.0
aa(lp54
F6.896530930133873
aF9.140364102199772
aF4.64416730426489
aF6.197140082705877
aa(lp55
F5.858633611100156
aF7.070839835877095
aF5.642889295160182
aF5.439827922877229
aa(lp56
F0.0
aF0.0
aF0.0
aF0.0
aa(lp57
F0.0
aF0.0
aF0.0
aF0.0
aa(lp58
F-0.02672521947358025
aF-0.011189346709799795
aF-0.004252029884805796
aF0.06151411810564887
aa(lp59
F-0.5116844372962842
aF-0.01192510760590236
aF-0.176493455451051
aF-0.17202966114631263
aa(lp60
F-0.5002731359812962
aF-0.32370103797108946
aF-0.370349460712924
aF-0.19325118075616476
aa(lp61
F-0.7762619000000001
aF-0.7159229817117229
aF-0.7073214880418951
aF-0.673836727385928
aa(lp62
F-0.6158879292420727
aF-0.6102013244728492
aF-0.5818346549312807
aF-0.4503601360913491
aa(lp63
F-0.5898931907389444
aF-0.577739
aF-0.6733190000000001
aF-0.5446398539811885
aa(lp64
F-0.551
aF-0.6571100000000001
aF-0.7417892924207272
aF-0.47023736023814466
aa(lp65
F-0.2987469073644422
aF-0.2
aF-0.3889769915785857
aF-0.3340183238349209
aa(lp66
F1.3012970883126773
aF0.0
aF0.0
aF1.0
aa(lp67
F1.072236569840414
aF0.0
aF0.0
aF0.0
aa(lp68
F3.8711214155201987
aF1.2526579608342088
aF1.1409473749660994
aF3.1460579409860823
aa(lp69
F4.451288080577894
aF4.142587023025121
aF4.344771246798197
aF5.659395519193583
aa(lp70
F0.0
aF0.0
aF0.0
aF0.0
aa(lp71
F0.0
aF0.0
aF0.0
aF0.0
aa(lp72
F-0.09062145484633241
aF-0.05963224312473742
aF-0.05517300434993074
aF-0.021275762909888703
aa(lp73
F-0.7237228134716656
aF-0.257116337934072
aF-0.27197084335737554
aF-0.15762203630087523
aa(lp74
F-0.7994174680000001
aF-0.29591925677109565
aF-0.5619591772885782
aF-0.5135451541019249
aa(lp75
F-1.183265508281968
aF-1.1432765554159023
aF-1.186329207509269
aF-1.1881628730407336
aa(lp76
F-1.14863178
aF-1.105113407039306
aF-1.058325591806823
aF-1.1097599870202737
aa(lp77
F-0.8778
aF-0.99818958
aF-1.1067059288058665
aF-0.9657723252906067
aa(lp78
F-0.38708659822566205
aF-0.31800000000000006
aF-0.4952000000000001
aF-0.38942307865368564
aa(lp79
F-0.15479485449886593
aF-0.2
aF-0.20899978798984967
aF-0.3032077781154418
aa(lp80
F0.4184683751508987
aF0.0
aF0.0
aF0.0
aa(lp81
F1.1807405794230543
aF0.0
aF0.0
aF0.0
aa(lp82
F0.38140131812122113
aF0.26682645537383204
aF2.7281123993699823
aF1.5897903579208592
aa(lp83
F3.6447567731064443
aF3.2999486440439854
aF3.671638450477035
aF4.223786024289234
aa(lp84
F0.0
aF0.0
aF0.0
aF0.0
aa(lp85
F0.0
aF0.0
aF0.0
aF0.0
aa(lp86
F-0.07578351927388066
aF-0.031334516928765384
aF0.18481048053195778
aF-0.054948011230879786
aa(lp87
F-0.12418351066541007
aF-0.117206294342654
aF-0.02593040804786265
aF-0.13333407494126853
aa(lp88
F-0.7800907362025472
aF-0.1391508556388101
aF-0.6253232599928191
aF-0.5554411431424733
aa(lp89
F-1.3196888128154538
aF-0.6657085661218142
aF-0.805117848006638
aF-0.9413612856200001
aa(lp90
F-1.268845665011081
aF-1.3197803766047453
aF-1.3456572007842191
aF-1.4040316279825327
aa(lp91
F-1.0102611877210002
aF-0.9901587499068195
aF-0.9668999943602463
aF-1.3929537
aa(lp92
F-0.478909996248175
aF-0.5449071000000001
aF-0.6785324114214477
aF-0.498
aa(lp93
F-0.25968881488982754
aF-0.4114951521956274
aF-0.27909996248174984
aF-0.24511771969172141
aa(lp94
F0.607556581583447
aF0.0
aF0.0
aF0.0
aa(lp95
F1.6766410737187176
aF0.08852394068466674
aF0.0
aF0.0
aa(lp96
F2.667053773879857
aF1.0745876845912707
aF0.7519794001337957
aF1.7373361018155773
aa(lp97
F2.8502106067178805
aF2.5606945416079516
aF2.6920698127203413
aF3.197332072596635
aa(lp98
F0.0
aF0.0
aF0.0
aF0.0
aa(lp99
F0.0
aF0.0
aF0.0
aF0.0
aa(lp100
F-0.05512710957255318
aF0.025336789215804238
aF0.2619578263499786
aF-0.05492414230810126
aa(lp101
F-0.6676631922198067
aF-0.10102431654720843
aF0.19439412645870666
aF-0.11398623087450743
aa(lp102
F-0.6835894887747571
aF-0.24819415584212146
aF-0.6613042246310574
aF-0.6770436069816383
aa(lp103
F-1.2721363477456116
aF-1.074533754162188
aF-1.1898770021517162
aF-1.0407918149302087
aa(lp104
F-1.231931879495124
aF-1.126984143350262
aF-1.1533403150539212
aF-1.0770340370869482
aa(lp105
F-0.7790533482207942
aF-0.7912380000000001
aF-0.8902359154561164
aF-0.7983754695901286
aa(lp106
F-0.39
aF-0.4765870752133282
aF-0.36164622814560216
aF-0.3978112163138345
aa(lp107
F-0.17608740168314463
aF-0.30800000000000005
aF-0.26817420046598495
aF-0.3527845314668096
aa(lp108
F0.07457961445799989
aF0.0
aF0.0
aF0.0
aa(lp109
F0.7213274780552197
aF-0.1
aF0.06373930115509917
aF0.0
aa(lp110
F0.6453498377332909
aF0.0
aF1.935109173597211
aF0.9599571452247087
aa(lp111
F2.307736429740585
aF2.048770872132975
aF2.2600500053066437
aF2.64684255369567
aa(lp112
F0.0
aF0.0
aF0.0
aF0.0
aa(lp113
F0.0
aF0.0
aF0.0
aF0.0
aa(lp114
F0.0311007802972149
aF0.024904841624909503
aF0.2677641035887184
aF0.01643387966754161
aa(lp115
F-0.7398905073588231
aF-0.0782589824951829
aF0.2975097457534236
aF-0.19028456266812413
aa(lp116
F-0.9368635278532489
aF0.15534130082704822
aF-0.3398334539122786
aF-0.4131427951166859
aa(lp117
F-1.025249413294481
aF-1.0097092267186245
aF-0.9871061794193097
aF-1.0610091638813672
aa(lp118
F-0.6688557296926394
aF-0.7163434902363002
aF-0.693452202862535
aF-0.7609593000000001
aa(lp119
F-0.5108764121079334
aF-0.8055151505756359
aF-0.5251025369548228
aF-0.6071240867212093
aa(lp120
F-0.23330962913103043
aF-0.2
aF-0.27471237390438413
aF-0.4117609492422162
aa(lp121
F-0.15079506018453914
aF-0.1
aF0.038396992861871766
aF-0.1
aa(lp122
F0.44402169524890633
aF0.0
aF0.0
aF0.0
aa(lp123
F0.6630401553471943
aF0.03979156100735525
aF0.0
aF0.0
aa(lp124
F0.4665423134140311
aF0.0
aF0.38237830847421467
aF2.0659535759682415
aa(lp125
F1.9200333034098063
aF1.9350942550234205
aF1.8655662396493238
aF2.2695942349943667
aa(lp126
F0.0
aF0.0
aF0.0
aF0.0
aa(lp127
F0.0
aF0.0
aF0.0
aF0.0
aa(lp128
F0.02250283587398625
aF0.018788905555243502
aF0.3072679352502963
aF0.029638588558772716
aa(lp129
F-0.1744041421306356
aF0.08378666307758899
aF0.27658067305456224
aF-0.036454637104436874
aa(lp130
F-0.4506024993994196
aF-0.0487010609442782
aF0.3892711676798054
aF-0.5567810863127592
aa(lp131
F-0.36704791561628214
aF-0.30559733563198116
aF-0.08159613446949757
aF-0.3376831871336591
aa(lp132
F-0.199
aF-0.30800000000000005
aF0.18140639423671165
aF-0.30791
aa(lp133
F-0.2
aF-0.28
aF0.2293780654817432
aF-0.2914344915146029
aa(lp134
F-0.2671790433561792
aF-0.2937356769627158
aF0.1524080826301818
aF-0.4060209656833983
aa(lp135
F-0.06654492617976865
aF-0.1
aF0.1626731837389845
aF-0.11791000000000001
aa(lp136
F0.7116993262491489
aF0.0
aF0.0
aF0.0
aa(lp137
F1.1347902056597636
aF0.06226323609362855
aF0.03746894921853959
aF0.0
aa(lp138
F1.4789174273048624
aF0.3150864921883925
aF0.5159328981286869
aF0.9822192106086033
aa(lp139
F1.5330709649604495
aF1.4951878313983655
aF1.4324892252421257
aF1.7640609877482698
aa(lp140
F0.0
aF0.0
aF0.0
aF0.0
aa(lp141
F0.0
aF0.0
aF0.0
aF0.0
aa(lp142
F0.34008961737046906
aF0.0
aF0.0
aF0.028542796965356138
aa(lp143
F0.1749527851901094
aF0.09115234678010475
aF0.41959995933365496
aF0.05140790823849567
aa(lp144
F0.08190452942037073
aF0.17089055251896876
aF0.46090534406561084
aF-0.1756699417825004
aa(lp145
F0.5146004290320861
aF0.007267874322031836
aF-0.11215923716617841
aF-0.4958424346182697
aa(lp146
F0.6553522443114473
aF-0.006994235207664928
aF0.056519536562939385
aF-0.3141893103234661
aa(lp147
F0.6766482319942035
aF-0.1444108529684378
aF0.052607520561796364
aF-0.4294249393392694
aa(lp148
F0.9151635746113066
aF0.14263171140435618
aF0.15413720968743716
aF-0.09972984709644267
aa(lp149
F0.22648914725728247
aF0.1781398857544439
aF0.9310591051053904
aF-0.07810386785987833
aa(lp150
F1.226990900517949
aF0.0
aF0.13887990467982245
aF0.1078667023704104
aa(lp151
F1.3131966034279403
aF0.0
aF0.0840157411777398
aF0.12590980595847473
aa(lp152
F0.2705606713419175
aF0.6114361072217572
aF0.46884554903643666
aF1.4211441667191944
aa(lp153
F1.2664605802463564
aF1.2634872219615376
aF1.1987692695870553
aF1.396867837232622
aa(lp154
F0.0
aF0.0
aF0.0
aF0.0
aa(lp155
F0.0
aF0.0
aF0.0
aF0.0
aa(lp156
F0.41528284002197047
aF0.14059361003917337
aF0.08411433171326203
aF0.113532273745659
aa(lp157
F0.4629846953271981
aF0.04926239895152444
aF0.019476707898161433
aF0.1504782633977253
aa(lp158
F0.5033357424296333
aF0.26035840472565086
aF0.137369436355135
aF0.2354136311115648
aa(lp159
F0.5680329785151763
aF0.2966458924884472
aF0.23664163351271728
aF0.20382410620458763
aa(lp160
F0.24000401508599792
aF0.3067414102712192
aF0.6121400000708819
aF0.33132882789920876
aa(lp161
F0.2936554961759068
aF0.16531500549197056
aF0.6617234735603909
aF0.04574345547800393
aa(lp162
F0.8635103743916711
aF0.0528324867933534
aF0.05863148706316901
aF0.15223747914754032
aa(lp163
F1.0026445533558703
aF0.14818558953099467
aF0.28094308452127187
aF0.2775782298694419
aa(lp164
F1.1001188651589286
aF0.30982395322009176
aF0.2598578812186323
aF0.31136147018278765
aa(lp165
F1.1243042528583047
aF0.5439165615440805
aF0.3504579168117513
aF0.10872823812299731
aa(lp166
F0.4849247822751767
aF0.641580273491356
aF0.36772855467151205
aF1.2728734460125377
aa(lp167
F1.0105435192289502
aF1.076650123649096
aF0.9341818656927763
aF1.0957690077499274
aa(lp168
F0.0
aF0.0
aF0.0
aF0.0
aa(lp169
F0.0
aF0.0
aF0.0
aF0.0
aa(lp170
F0.09980664432937564
aF0.04350294892368922
aF0.07626663469733164
aF0.3762839245427822
aa(lp171
F0.29643390520806207
aF0.0
aF0.0
aF0.0
aa(lp172
F0.0006394302184779058
aF0.028601314607725664
aF0.0
aF0.39890531545903535
aa(lp173
F0.5223544705875185
aF0.0
aF0.0
aF0.10209656076629883
aa(lp174
F0.679815578397061
aF0.17755285683499408
aF0.2271583542283341
aF0.11787936453048192
aa(lp175
F0.7443318697408816
aF0.4141103406693071
aF0.384164468833869
aF0.19628595667426452
aa(lp176
F0.8034000969344423
aF0.3867913214146001
aF0.3251175524207517
aF0.5743675476698281
aa(lp177
F0.8572057451275936
aF0.35671276131410734
aF0.37468432177196775
aF0.5235351729631165
aa(lp178
F0.9436467136180368
aF0.4256909476092885
aF0.4202928898571248
aF0.7331684942615934
aa(lp179
F0.9436218881681868
aF0.5243107246256273
aF0.5353876958584063
aF0.5909130194721253
aa(lp180
F0.8354874614679488
aF0.6573080443310308
aF0.5768320923968565
aF1.0704991304838174
aa(lp181
F0.7725823687376173
aF0.7651648511448466
aF0.7711364185269926
aF0.9375472291349635
aa(lp182
F0.0
aF0.0
aF0.0
aF0.0
aa(lp183
F0.0
aF0.0
aF0.0
aF0.0
aa(lp184
F0.0
aF0.0
aF0.0
aF0.0
aa(lp185
F0.0
aF0.0
aF0.0
aF0.0
aa(lp186
F0.0
aF0.0
aF0.0
aF0.0
aa(lp187
F0.0
aF0.0
aF0.0
aF0.0
aa(lp188
F0.0
aF0.0
aF0.0
aF0.0
aa(lp189
F0.0
aF0.0
aF0.0
aF0.0
aa(lp190
F0.0
aF0.0
aF0.0
aF0.0
aa(lp191
F0.0
aF0.0
aF0.0
aF0.0
aa(lp192
F0.0
aF0.0
aF0.0
aF0.0
aa(lp193
F0.0
aF0.0
aF0.0
aF0.0
aa(lp194
F0.0
aF0.0
aF0.0
aF0.0
aa(lp195
F0.0
aF0.0
aF0.0
aF0.0
aa(lp196
F0.0
aF0.0
aF0.0
aF0.0
aa.