(lp0
(lp1
F0.0
aF0.0
aF0.0
aF0.0
aa(lp2
F0.0
aF0.0
aF0.0
aF0.0
aa(lp3
F0.0
aF0.0
aF0.0
aF0.0
aa(lp4
F0.0
aF0.0
aF0.0
aF0.0
aa(lp5
F0.0
aF0.0
aF0.0
aF0.0
aa(lp6
F0.0
aF0.0
aF0.0
aF0.0
aa(lp7
F0.0
aF0.0
aF0.0
aF0.0
aa(lp8
F0.0
aF0.0
aF0.0
aF0.0
aa(lp9
F0.0
aF0.0
aF0.0
aF0.0
aa(lp10
F0.0
aF0.0
aF0.0
aF0.0
aa(lp11
F0.0
aF0.0
aF0.0
aF0.0
aa(lp12
F0.0
aF0.0
aF0.0
aF0.0
aa(lp13
F0.0
aF0.0
aF0.0
aF0.0
aa(lp14
F0.0
aF0.0
aF0.0
aF0.0
aa(lp15
F0.0
aF0.0
aF0.0
aF0.0
aa(lp16
F0.0006955072255780087
aF0.0
aF0.0
aF0.0
aa(lp17
F0.0
aF0.0
aF3.0273354870286503e-05
aF0.0
aa(lp18
F0.09084649219041396
aF0.0
aF0.0
aF0.0
aa(lp19
F1.1456842463334884
aF0.133606556552674
aF0.18498767849515008
aF0.0009421230398164236
aa(lp20
F1.7514712484799766
aF0.39172107342385787
aF0.026236017329243345
aF0.12364605512855273
aa(lp21
F2.1144123513112754
aF0.2541800532094568
aF0.0
aF0.3606197740997259
aa(lp22
F2.4743443646491863
aF0.0
aF0.009024320902050442
aF0.6314843518149915
aa(lp23
F2.9656175563284237
aF0.06929029048788883
aF0.12583081983433772
aF0.0
aa(lp24
F3.1232370592105094
aF0.40385592797287606
aF0.6504200384308185
aF0.3169569224379864
aa(lp25
F3.516939241739917
aF0.25218103992360924
aF0.7738370074234642
aF0.8312071883401002
aa(lp26
F3.5294655331081066
aF0.6274880037023984
aF0.8171161871461492
aF0.7631152541872739
aa(lp27
F1.9622447422415825
aF2.0604687803753836
aF4.356185920305972
aF2.2695450138868445
aa(lp28
F0.0
aF0.0
aF0.0
aF0.0
aa(lp29
F0.0
aF0.0
aF0.0
aF0.0
aa(lp30
F0.06746324626820399
aF0.0
aF0.0
aF0.0
aa(lp31
F0.34655877103730487
aF0.003754037821477849
aF0.02095364058045043
aF0.006546039822936604
aa(lp32
F0.5800786877924671
aF0.0031903791356822607
aF0.0
aF0.00033537291940003095
aa(lp33
F0.045210887519155196
aF-0.08828443518250254
aF-0.12853852242369562
aF0.8995304605539242
aa(lp34
F0.06609918406438156
aF-0.020251927160583647
aF-0.27256125736169007
aF1.2917195248021929
aa(lp35
F0.6704042265414242
aF0.07498133196445865
aF-0.1
aF0.0
aa(lp36
F1.09087134831312
aF0.0
aF0.0
aF0.03897582881756667
aa(lp37
F2.0071337845396275
aF0.05698570557033505
aF0.0
aF0.0
aa(lp38
F2.764425632699799
aF0.0
aF0.0
aF0.27762189758644396
aa(lp39
F4.192097983566244
aF0.0
aF0.0
aF0.0
aa(lp40
F4.58290002330116
aF2.010403638072863
aF4.0428488872184465
aF1.4004929026261306
aa(lp41
F4.5142207528959215
aF4.00231565655734
aF5.654684099080186
aF3.9131485804632717
aa(lp42
F0.0
aF0.0
aF0.0
aF0.0
aa(lp43
F0.0
aF0.0
aF0.0
aF0.0
aa(lp44
F-0.00877493504270376
aF1.38772410448871e-07
aF-0.001978738027055162
aF0.0782838545683887
aa(lp45
F-0.1763624675257741
aF-0.09565734425463805
aF-0.06748980715478292
aF0.22176218244082155
aa(lp46
F-0.4828194685517129
aF-0.1123696327319288
aF-0.27493856672684047
aF0.2927721011825921
aa(lp47
F-0.18686406804752664
aF-0.18374750450470662
aF-0.31534120000000004
aF0.5897258542653776
aa(lp48
F-0.19
aF-0.24425206831577817
aF-0.2171
aF0.06268805022010057
aa(lp49
F-0.2648905349306527
aF-0.3854011747137158
aF-0.4061
aF-0.09520304285163422
aa(lp50
F-0.1
aF-0.1
aF-0.41544301860387267
aF0.09449787711147264
aa(lp51
F-0.1
aF-0.1
aF0.31420665800170366
aF0.0
aa(lp52
F3.374933358538093
aF0.0
aF0.0
aF0.0
aa(lp53
F0.0
aF0.0
aF0.0
aF0.0
aa(lp54
F7.056451043747556
aF8.512016613518828
aF4.8042548791938415
aF4.535767867645714
aa(lp55
F6.261963404793892
aF6.9516290819291235
aF5.502386185516165
aF5.739506383205564
aa(lp56
F0.0
aF0.0
aF0.0
aF0.0
aa(lp57
F0.0
aF0.0
aF0.0
aF0.0
aa(lp58
F-0.035288270417683947
aF-0.015072113916660811
aF-0.011651706387895366
aF0.028992126499620897
aa(lp59
F-0.21702975673619765
aF-0.1182863878906803
aF-0.06608268449452209
aF-0.016077485205297965
aa(lp60
F-0.24205850974844798
aF-0.05017658416167068
aF-0.5094906958542547
aF-0.1733271351038338
aa(lp61
F-0.758508272760966
aF-0.7141780514980001
aF-0.84654493652
aF-0.6949483122608726
aa(lp62
F-0.55739
aF-0.4913461
aF-0.6420610035038727
aF-0.5288257122843666
aa(lp63
F-0.40956590000000004
aF-0.42198257122843663
aF-0.3432
aF-0.36669964590866133
aa(lp64
F-0.5475237495269042
aF-0.5762
aF-0.47900000000000004
aF-0.4183545805672608
aa(lp65
F-0.18466000891793466
aF-0.2
aF-0.09985026864192743
aF-0.007843554648627654
aa(lp66
F0.9371794048658278
aF0.0
aF-0.1
aF0.0
aa(lp67
F2.770671345024441
aF0.0
aF0.0
aF0.0
aa(lp68
F4.9111197206825885
aF0.6682804606237713
aF1.6708809690496693
aF2.7494027621730694
aa(lp69
F4.971168312178832
aF4.472341085156955
aF4.428697125292766
aF5.802906676054825
aa(lp70
F0.0
aF0.0
aF0.0
aF0.0
aa(lp71
F0.0
aF0.0
aF0.0
aF0.0
aa(lp72
F-0.023708673463584858
aF-0.018379956948992263
aF-0.035901387133345404
aF0.01925219924301256
aa(lp73
F-0.31923259120590486
aF-0.22479536986372228
aF-0.3316350813794522
aF-0.16303741953450263
aa(lp74
F-0.9828547153440594
aF-0.4005931481078627
aF-0.38344374263951586
aF-0.4153226331808435
aa(lp75
F-1.2534339165518396
aF-0.7650969329418467
aF-1.0794280214980498
aF-1.0102573491110611
aa(lp76
F-1.5830117894485625
aF-1.4878325349388901
aF-1.3674300538862112
aF-1.3639091636900003
aa(lp77
F-1.1995937863471566
aF-1.1246961613843776
aF-1.2499938768
aF-1.0297009736233362
aa(lp78
F-0.6500000000000001
aF-0.5790000000000001
aF-0.6914
aF-0.7195475241777736
aa(lp79
F-0.19
aF-0.5700000000000001
aF-0.383047974550239
aF-0.2915217546389931
aa(lp80
F-0.09469635872234765
aF-0.2074045224111843
aF-0.1149197470692516
aF0.0
aa(lp81
F2.1311450363832436
aF0.0
aF0.1494256031312717
aF0.35333275674862863
aa(lp82
F3.3918691293558374
aF0.8445479218979757
aF1.2221233293055818
aF0.013035733721864713
aa(lp83
F3.888026706898377
aF3.768907513646119
aF3.692125633300916
aF4.464810210895109
aa(lp84
F0.0
aF0.0
aF0.0
aF0.0
aa(lp85
F0.0
aF0.0
aF0.0
aF0.0
aa(lp86
F-0.07739779391466589
aF-0.06304835789347425
aF-0.005096600665049338
aF-0.06578262073165514
aa(lp87
F-0.5777847955087878
aF-0.20837650383559284
aF-0.2176161523374725
aF-0.19695804194423644
aa(lp88
F-1.283249591438878
aF-0.20601486972628674
aF-0.5722826595050354
aF-0.7321401280584432
aa(lp89
F-1.3898455257083961
aF-1.1836438946186045
aF-1.3710529575338384
aF-1.189450276788583
aa(lp90
F-1.6916362843807802
aF-1.8168932671208478
aF-1.697398128492122
aF-1.8688979720239174
aa(lp91
F-1.303686992344046
aF-1.1150539590000001
aF-1.2122288207824794
aF-1.32842474148
aa(lp92
F-0.7573699339543879
aF-1.0007845679755163
aF-0.6284976731929544
aF-0.6229199999999999
aa(lp93
F-0.055330580497663095
aF-0.21800000000000003
aF-0.25335703950119465
aF-0.24225752173843046
aa(lp94
F0.667565620957554
aF0.0
aF-0.08009454798315692
aF0.0
aa(lp95
F1.9563136143186046
aF0.0
aF0.06836931724178166
aF0.0
aa(lp96
F1.4836309128990233
aF0.6601178742976817
aF0.3748163339475993
aF3.528218682106819
aa(lp97
F3.049971607231543
aF3.045897490938108
aF2.8343509036815098
aF3.6680740401878142
aa(lp98
F0.0
aF0.0
aF0.0
aF0.0
aa(lp99
F0.0
aF0.0
aF0.0
aF0.0
aa(lp100
F-0.23166316320166394
aF0.023595628230124392
aF0.15229730607138534
aF-0.0072426816683061265
aa(lp101
F-0.35714705821181547
aF-0.23232229493099024
aF-0.1351176938394017
aF-0.22852853214290966
aa(lp102
F-1.054957908693922
aF-0.472583066358816
aF-0.6997369062272387
aF-0.6605392529518936
aa(lp103
F-1.2266283778372518
aF-1.055590208217682
aF-1.120906625975789
aF-1.2380893316708266
aa(lp104
F-1.5262706529184564
aF-1.4526241142818512
aF-1.395579874354917
aF-1.508645609329744
aa(lp105
F-0.701262041269953
aF-0.8958941952911557
aF-0.5509999334188047
aF-0.8356012399727959
aa(lp106
F-0.5065904715833937
aF-0.5871
aF-0.6466274058501695
aF-0.5931221767330793
aa(lp107
F-0.23187351624417324
aF-0.199
aF-0.29237278932446764
aF-0.20798821588145533
aa(lp108
F0.40640830756826285
aF-0.08478983213610725
aF0.0
aF0.0
aa(lp109
F1.0325281496113063
aF0.0
aF0.11813565985564421
aF0.0
aa(lp110
F2.3416304892118154
aF0.5193635312176491
aF0.3207698579153697
aF1.7401394817311895
aa(lp111
F2.4355744986360306
aF2.2497131747292824
aF2.2191493453803117
aF2.9750824085518897
aa(lp112
F0.0
aF0.0
aF0.0
aF0.0
aa(lp113
F0.0
aF0.0
aF0.0
aF0.0
aa(lp114
F-0.06252958268533854
aF0.03484509751453318
aF0.21373767378541947
aF-0.018185931541209573
aa(lp115
F-0.4493412686284115
aF-0.1436973733009566
aF0.13909825131930034
aF-0.18583332759884125
aa(lp116
F-0.7808236811606748
aF-0.5109073472973237
aF-0.23272029864382704
aF-0.4968878005197159
aa(lp117
F-1.0630990598618504
aF-0.916697734794933
aF-0.9271490219433859
aF-0.9169688961934277
aa(lp118
F-0.890648492533265
aF-0.892646722597019
aF-0.9483322402292212
aF-0.8249499649941342
aa(lp119
F-0.667160976056232
aF-0.6361386885057388
aF-0.6517161636285579
aF-0.7367264498324805
aa(lp120
F-0.3123510082374886
aF-0.5933114034568118
aF-0.3428836622651746
aF-0.297099926020894
aa(lp121
F-0.4774760875955556
aF-0.199
aF-0.23411303860334315
aF-0.2047083684108066
aa(lp122
F0.482531891834717
aF-0.10719991896591469
aF0.13629413243176378
aF0.0
aa(lp123
F4.432034633094182e-05
aF0.0
aF0.37267998227369403
aF0.0
aa(lp124
F0.10831204712290941
aF0.10831204712290941
aF1.5686405205324239
aF0.4154049872567076
aa(lp125
F1.9084361261557719
aF1.698610515044056
aF1.8284854534318993
aF2.440378499085381
aa(lp126
F0.0
aF0.0
aF0.0
aF0.0
aa(lp127
F0.0
aF0.0
aF0.0
aF0.0
aa(lp128
F0.04084605622034709
aF-0.0001855884134182328
aF0.2618671038854128
aF0.0038196139445560986
aa(lp129
F-0.20135720228991055
aF0.04332073674393691
aF0.32950606630059864
aF-0.0035645320818161116
aa(lp130
F-0.49764284179499096
aF-0.12224764135759626
aF0.16405595169469597
aF-0.23867233264220547
aa(lp131
F-0.34619184559120497
aF-0.23882323497541666
aF0.029703084174000652
aF-0.35294240526842635
aa(lp132
F-0.29619220575605976
aF-0.3564252986707286
aF-0.21847916410115928
aF-0.44905720495964707
aa(lp133
F-0.48026401402946095
aF-0.490099501
aF-0.19564208486410917
aF-0.7546881441155664
aa(lp134
F-0.03633726839793019
aF0.0
aF0.08707782200326003
aF0.0
aa(lp135
F0.4330514925102755
aF-0.10656099718885773
aF0.0
aF0.0
aa(lp136
F1.033621325977725
aF-0.12633786854938212
aF0.01191597684553784
aF0.03646420755070605
aa(lp137
F1.4704552975150444
aF0.22714370053094207
aF0.0
aF0.0
aa(lp138
F1.5429000345352568
aF0.6266207112396799
aF0.2462948387538762
aF0.9026194628367541
aa(lp139
F1.5712261747417138
aF1.4525618814340295
aF1.4460756778647206
aF1.8569147995629696
aa(lp140
F0.0
aF0.0
aF0.0
aF0.0
aa(lp141
F0.0
aF0.0
aF0.0
aF0.0
aa(lp142
F0.30582243432020306
aF0.023708132178209527
aF0.028771619003898376
aF0.034259769300179634
aa(lp143
F9.849566186134807e-05
aF0.04838395110629845
aF0.4077273536911115
aF0.06289465106744864
aa(lp144
F-0.008732011919445004
aF-0.0627166775606387
aF0.414036742949754
aF-0.19230729444008288
aa(lp145
F-0.10688037847450475
aF-0.03913945822350322
aF0.40017389805938014
aF-0.442726276405726
aa(lp146
F0.23238526453837638
aF1.4648331775076247e-09
aF1.54872091759264e-09
aF-0.28374317275367333
aa(lp147
F-0.06449154020978512
aF-0.0997593042799608
aF0.04888509922948553
aF-0.4309621168256038
aa(lp148
F-0.08507702973753047
aF-0.08726302318474499
aF0.5088598466073815
aF0.0
aa(lp149
F0.5838064943230611
aF0.0003131550931241999
aF0.06738023268538416
aF-0.1
aa(lp150
F0.10259631962669433
aF0.04770586455867055
aF0.0
aF0.9680008983744887
aa(lp151
F1.233648594033631
aF0.17376086342517622
aF0.10447084267414562
aF0.3025086293641504
aa(lp152
F1.2069907716946549
aF0.6870574581434084
aF0.6239844777522979
aF0.8273215867690318
aa(lp153
F1.1683225685252
aF1.1955005863528503
aF1.1063028468574396
aF1.5460569997891476
aa(lp154
F0.0
aF0.0
aF0.0
aF0.0
aa(lp155
F0.0
aF0.0
aF0.0
aF0.0
aa(lp156
F0.26488177262103113
aF0.11360339370178774
aF0.43986333576579706
aF0.1671694950634791
aa(lp157
F0.06860346607010262
aF0.007165924614981964
aF0.46191466699522843
aF0.0
aa(lp158
F0.08965150433629634
aF0.1242235526328013
aF0.49925202840685323
aF0.07538733722836088
aa(lp159
F0.13924327114624357
aF0.07111025009271588
aF0.5180600671836053
aF0.0
aa(lp160
F0.5378077452874847
aF0.03965353850359277
aF0.0
aF0.017667853781163808
aa(lp161
F0.0002151588646727585
aF1.64199865514326e-05
aF0.6176912359041422
aF0.0
aa(lp162
F0.7130356598058157
aF0.114721364366168
aF0.11650041511475939
aF0.0002151433774635826
aa(lp163
F0.3144911428959434
aF0.05854986509057883
aF0.7242568103351903
aF0.05130029681176993
aa(lp164
F0.21908074338273537
aF0.1310545762504296
aF0.32555084713009497
aF0.8968122977207875
aa(lp165
F1.0175083605803306
aF0.0
aF0.0
aF0.0
aa(lp166
F0.7197157612136783
aF0.4221851213492283
aF0.41653809037276585
aF1.1846138076602337
aa(lp167
F0.9868704442333586
aF1.0000179336089536
aF0.9518400154226271
aF1.1807219565631204
aa(lp168
F0.0
aF0.0
aF0.0
aF0.0
aa(lp169
F0.0
aF0.0
aF0.0
aF0.0
aa(lp170
F0.47130866682150296
aF0.23664614084799845
aF0.22811625482357434
aF0.24292197014756023
aa(lp171
F0.5037420401152232
aF0.27463583061979197
aF0.2807153707042367
aF0.08113403156754116
aa(lp172
F0.5378570677616166
aF0.2991768477273102
aF0.30172670302949506
aF0.21843835708700363
aa(lp173
F0.5731203062597058
aF0.34519295888924606
aF0.25222980858558486
aF0.13992628430454768
aa(lp174
F0.6121078902342463
aF0.34481695895408165
aF0.4314629753372612
aF0.12984085376868856
aa(lp175
F0.6452901422011187
aF0.3828024277513372
aF0.31323951738265643
aF0.3836348005742524
aa(lp176
F0.6911643499950116
aF0.33090996622652047
aF0.34290522408285157
aF0.45794015325811027
aa(lp177
F0.7429307677066584
aF0.41404412150569647
aF0.4809949100954414
aF0.5011281632663671
aa(lp178
F0.8245239496007207
aF0.5250100984471279
aF0.48822526718624254
aF0.5981817643364367
aa(lp179
F0.8330981155424754
aF0.5411631015980722
aF0.6375283212596093
aF0.36923450300727007
aa(lp180
F0.657061138670128
aF0.7762940559401204
aF0.7128486691951575
aF1.0099883422841698
aa(lp181
F0.7412684882121133
aF0.618904400182735
aF0.652233786126805
aF0.8554534867107546
aa(lp182
F0.0
aF0.0
aF0.0
aF0.0
aa(lp183
F0.0
aF0.0
aF0.0
aF0.0
aa(lp184
F0.0
aF0.0
aF0.0
aF0.0
aa(lp185
F0.0
aF0.0
aF0.0
aF0.0
aa(lp186
F0.0
aF0.0
aF0.0
aF0.0
aa(lp187
F0.0
aF0.0
aF0.0
aF0.0
aa(lp188
F0.0
aF0.0
aF0.0
aF0.0
aa(lp189
F0.0
aF0.0
aF0.0
aF0.0
aa(lp190
F0.0
aF0.0
aF0.0
aF0.0
aa(lp191
F0.0
aF0.0
aF0.0
aF0.0
aa(lp192
F0.0
aF0.0
aF0.0
aF0.0
aa(lp193
F0.0
aF0.0
aF0.0
aF0.0
aa(lp194
F0.0
aF0.0
aF0.0
aF0.0
aa(lp195
F0.0
aF0.0
aF0.0
aF0.0
aa(lp196
F0.0
aF0.0
aF0.0
aF0.0
aa.