(lp0
(lp1
F0.0
aF0.0
aF0.0
aF0.0
aa(lp2
F0.0
aF0.0
aF0.0
aF0.0
aa(lp3
F0.0
aF0.0
aF0.0
aF0.0
aa(lp4
F0.0
aF0.0
aF0.0
aF0.0
aa(lp5
F0.0
aF0.0
aF0.0
aF0.0
aa(lp6
F0.0
aF0.0
aF0.0
aF0.0
aa(lp7
F0.0
aF0.0
aF0.0
aF0.0
aa(lp8
F0.0
aF0.0
aF0.0
aF0.0
aa(lp9
F0.0
aF0.0
aF0.0
aF0.0
aa(lp10
F0.0
aF0.0
aF0.0
aF0.0
aa(lp11
F0.0
aF0.0
aF0.0
aF0.0
aa(lp12
F0.0
aF0.0
aF0.0
aF0.0
aa(lp13
F0.0
aF0.0
aF0.0
aF0.0
aa(lp14
F0.0
aF0.0
aF0.0
aF0.0
aa(lp15
F0.0
aF0.0
aF0.0
aF0.0
aa(lp16
F0.0
aF0.0
aF0.0
aF0.0
aa(lp17
F0.019609370361362698
aF0.0
aF0.0
aF0.0
aa(lp18
F0.03021548175137364
aF0.0
aF0.0
aF0.0
aa(lp19
F0.21813194959353843
aF0.0
aF0.0
aF7.4522681923219805e-06
aa(lp20
F0.19640859976711653
aF0.0
aF-0.0035947512118333935
aF0.09278145138894542
aa(lp21
F0.006777613467905098
aF0.0
aF0.6767788888531722
aF0.0
aa(lp22
F0.33026868767961204
aF0.0011217191895472934
aF0.0
aF0.0002508518382353777
aa(lp23
F0.649174703345471
aF0.0
aF0.0
aF0.0
aa(lp24
F1.15143559655599
aF0.028523949815169067
aF0.0
aF0.0
aa(lp25
F2.1628250934957665
aF0.0
aF0.0
aF0.0
aa(lp26
F0.4524585516833477
aF0.0
aF3.7939325394321544
aF0.0
aa(lp27
F0.0
aF0.7085796688136438
aF4.1288768714437065
aF0.30203469272753153
aa(lp28
F0.0
aF0.0
aF0.0
aF0.0
aa(lp29
F0.0
aF0.0
aF0.0
aF0.0
aa(lp30
F0.0007380030003616696
aF0.0
aF0.0
aF0.0
aa(lp31
F-0.006159352187405506
aF-0.0068057912564130985
aF-0.000648714572691669
aF0.001741111229716098
aa(lp32
F0.0023734608055714793
aF-0.10113351660856192
aF-0.10044769623847458
aF-0.08292613570850582
aa(lp33
F-0.0978095747203772
aF-0.12095330279610178
aF-0.3395681823788398
aF0.07080743425749328
aa(lp34
F-0.1
aF-0.024693166791727846
aF-0.1
aF-0.10877269230799178
aa(lp35
F1.141589537096806
aF0.0
aF0.0
aF0.02070143350925184
aa(lp36
F1.7045085510113978
aF0.1420872442999745
aF-0.17307576776212358
aF0.0
aa(lp37
F2.4234006885581234
aF0.15811118509389263
aF0.0
aF0.0
aa(lp38
F3.1738939609400396
aF0.22879368877562126
aF1.0
aF0.15634906545957883
aa(lp39
F4.551056055165305
aF0.4466298055922042
aF1.9325308643106398
aF0.0
aa(lp40
F4.540770478364828
aF0.8707949814831271
aF0.5195789695718878
aF1.2785949090673145
aa(lp41
F3.9686857621113907
aF3.7578621350538692
aF5.619268075127056
aF3.177307235314287
aa(lp42
F0.0
aF0.0
aF0.0
aF0.0
aa(lp43
F0.0
aF0.0
aF0.0
aF0.0
aa(lp44
F-0.00015306977100557214
aF-0.0008263097388695611
aF-5.0009726223861105e-05
aF0.0016051764110377907
aa(lp45
F-0.1
aF-0.004833040725065036
aF-0.015302164182561032
aF-0.10380481976450025
aa(lp46
F-0.1
aF-0.08797213812290668
aF-0.15948868291195578
aF-0.06753803374930062
aa(lp47
F-0.1
aF-0.1
aF-0.39881
aF0.00047754137781646773
aa(lp48
F-0.1
aF-0.1
aF-0.41339000000000004
aF0.15194042684556178
aa(lp49
F-0.18491116214145886
aF-0.1766236723283362
aF-0.317
aF-0.26408758076548744
aa(lp50
F-0.1254859678178125
aF-0.09976665341929886
aF-0.2
aF0.3401825796402801
aa(lp51
F-0.1
aF-0.1
aF-0.1977246966944381
aF0.39287796958193744
aa(lp52
F1.4545690589075426
aF-0.1
aF0.0
aF0.0
aa(lp53
F0.0
aF0.0
aF0.0
aF0.0
aa(lp54
F6.612912845928896
aF8.505248327532794
aF4.679035526616435
aF4.446490481379426
aa(lp55
F5.988076192315309
aF6.729651177896164
aF5.739159734764767
aF5.586014806594586
aa(lp56
F0.0
aF0.0
aF0.0
aF0.0
aa(lp57
F0.0
aF0.0
aF0.0
aF0.0
aa(lp58
F-0.010151105988471668
aF-0.020717952128651247
aF-0.00882970820670653
aF-0.004302272701410086
aa(lp59
F-0.29254246111818627
aF-0.15252794829364036
aF-0.06888643651262172
aF-0.12674505349682585
aa(lp60
F-0.8979262741507968
aF-0.3658596950671791
aF-0.4379256801701491
aF-0.2128460114904946
aa(lp61
F-0.67560149
aF-0.6699391273664963
aF-0.6165128392775431
aF-0.552414896711101
aa(lp62
F-0.551
aF-0.5710019584604566
aF-0.5218409
aF-0.5380492881765916
aa(lp63
F-0.3756641327109968
aF-0.4224730652577287
aF-0.5877952227024994
aF-0.35290000000000005
aa(lp64
F-0.3789398061073948
aF-0.209
aF-0.209
aF-0.25811108954228773
aa(lp65
F0.10184147077938915
aF-0.2
aF-0.09439426878332637
aF-0.2
aa(lp66
F-0.035485967817812485
aF-0.1
aF-0.09875472896798806
aF0.028762252745651563
aa(lp67
F3.6535202927509576
aF0.0
aF0.0
aF0.7564142874849393
aa(lp68
F4.1697841780074185
aF1.3879941982426134
aF1.1089592264781953
aF3.9577881818962064
aa(lp69
F4.821226979481743
aF4.686212922772199
aF4.374946426786207
aF5.558460444647068
aa(lp70
F0.0
aF0.0
aF0.0
aF0.0
aa(lp71
F0.0
aF0.0
aF0.0
aF0.0
aa(lp72
F-0.04758751104640626
aF-0.01748418310599515
aF-0.02123341788044918
aF-0.03205290266916442
aa(lp73
F-0.5100346615278506
aF-0.028191291838841157
aF-0.23317978550152618
aF-0.2298538621358864
aa(lp74
F-0.5560408232127083
aF-0.1936431641435361
aF-0.316283960971182
aF-0.46335032007279486
aa(lp75
F-1.0316532
aF-0.5036195379508329
aF-0.8527108657475881
aF-0.8257494344089525
aa(lp76
F-0.8130000000000001
aF-0.8411036118936747
aF-0.7824
aF-0.8357700000000001
aa(lp77
F-0.7581
aF-0.7278422164655236
aF-0.5328390000000001
aF-0.5752839806107395
aa(lp78
F-0.371
aF-0.30000000000000004
aF-0.389
aF-0.38695222702499427
aa(lp79
F-0.25821616681676574
aF-0.30000000000000004
aF-0.2
aF-0.19
aa(lp80
F0.6568671397906894
aF0.0
aF0.0
aF0.0
aa(lp81
F1.058318292677349
aF0.0
aF0.0
aF0.0
aa(lp82
F3.383862170794219
aF0.4274760122814919
aF1.6887868932765988
aF1.695546536553655
aa(lp83
F3.74199473108671
aF3.309481682879655
aF3.3419798157084446
aF4.440040250798383
aa(lp84
F0.0
aF0.0
aF0.0
aF0.0
aa(lp85
F0.0
aF0.0
aF0.0
aF0.0
aa(lp86
F-0.09283021544398827
aF0.012360568128256654
aF0.12754197871947856
aF-0.0361136167436747
aa(lp87
F-0.19
aF-0.14966470800731901
aF-0.07103614726509389
aF-0.24322077093888228
aa(lp88
F-0.6257679609552601
aF-0.25820989857543225
aF-0.5028075405943104
aF-0.5461641074427351
aa(lp89
F-0.9217200000000001
aF-0.8420668554581505
aF-1.0145152942983664
aF-0.8509101323853802
aa(lp90
F-0.982227
aF-0.7010183057273397
aF-0.7105647138070958
aF-0.9688740469514113
aa(lp91
F-0.8715556892159345
aF-1.070594195209855
aF-0.8093080584891794
aF-0.84639
aa(lp92
F-0.4202701836499173
aF-0.49700000000000005
aF-0.442
aF-0.5591
aa(lp93
F-0.15113450133614897
aF-0.21800000000000003
aF-0.199
aF-0.23420000000000002
aa(lp94
F0.13411577185297827
aF0.05941885849140749
aF0.0
aF0.0
aa(lp95
F1.1196129444177594
aF0.0
aF0.0
aF0.0
aa(lp96
F2.4883654767362935
aF0.0
aF0.6085540271876412
aF0.5442554445090064
aa(lp97
F3.06389586400842
aF2.8042797696846313
aF2.662509144926647
aF3.461522334255865
aa(lp98
F0.0
aF0.0
aF0.0
aF0.0
aa(lp99
F0.0
aF0.0
aF0.0
aF0.0
aa(lp100
F-0.037090614553217834
aF0.08943780079059559
aF0.30620390439860024
aF0.005437674372577891
aa(lp101
F-0.21474471339177914
aF-0.050865566398949694
aF0.14018085815974982
aF-0.11613740926727432
aa(lp102
F-0.9067626733509928
aF-0.005408073786684377
aF-0.5259256582583269
aF-0.42025607424100003
aa(lp103
F-0.8118521118104213
aF-0.6380645301880012
aF-0.8829113757708025
aF-0.8024403710000001
aa(lp104
F-0.8750899955160848
aF-1.0482682085457495
aF-1.0105741341019947
aF-1.2073898569057036
aa(lp105
F-0.40981994296127544
aF-0.209
aF-0.2
aF-0.33582
aa(lp106
F-0.41550289461786327
aF-0.39
aF-0.4528994935117354
aF-0.43040000000000006
aa(lp107
F-0.19
aF-0.199
aF-0.2548139062081037
aF-0.389
aa(lp108
F-0.08089539583387528
aF-0.10900000000000001
aF0.02007058128246382
aF0.0
aa(lp109
F1.1224464263034324
aF0.0
aF0.0
aF0.24042432719521167
aa(lp110
F2.1995811299255057
aF0.4099737375170885
aF6.647716150829753e-05
aF1.188165516606133
aa(lp111
F2.3697559253690343
aF2.221069028380045
aF2.32913390195329
aF2.7558928906963023
aa(lp112
F0.0
aF0.0
aF0.0
aF0.0
aa(lp113
F0.0
aF0.0
aF0.0
aF0.0
aa(lp114
F0.01991700199260894
aF0.019956922654860994
aF0.2904087597211045
aF0.027055753678400404
aa(lp115
F-0.2969094646958768
aF0.03646623193641432
aF0.3630487515871433
aF-0.06782788997894325
aa(lp116
F-0.396101278
aF0.15104954648670885
aF-0.24748326311479987
aF-0.46848665951052304
aa(lp117
F-1.0573703108122225
aF-0.916202654528264
aF-0.9336680452280135
aF-1.005958583348337
aa(lp118
F-0.740468
aF-0.884139401
aF-0.777624468817744
aF-0.9020644970274312
aa(lp119
F-0.47143353264478854
aF-0.6173515157652332
aF-0.44090790427432025
aF-0.6774793693986825
aa(lp120
F-0.0999999877591284
aF-0.2
aF-0.16068842604536088
aF-0.30340520228243295
aa(lp121
F0.1142374399050549
aF0.0
aF0.0
aF0.0
aa(lp122
F-0.09999375653108253
aF-0.09999990149896695
aF0.4038757287368243
aF0.0
aa(lp123
F1.0465728727335724
aF0.0
aF0.0
aF5.05818643865437e-06
aa(lp124
F1.8068352355608874
aF0.09998861328371596
aF0.8245503023917741
aF1.4375853971822028
aa(lp125
F1.8697464942615325
aF1.720281591383129
aF1.865666093143457
aF2.31715136543134
aa(lp126
F0.0
aF0.0
aF0.0
aF0.0
aa(lp127
F0.0
aF0.0
aF0.0
aF0.0
aa(lp128
F0.33408959657221815
aF0.01738977097297297
aF0.0832171294895169
aF0.0890175031572564
aa(lp129
F-0.276078927414287
aF0.001926831813429921
aF0.44492824937573955
aF-0.0217573536994959
aa(lp130
F-0.18973479332756527
aF-0.0528464179363297
aF0.4165711069734158
aF-0.27080959555352974
aa(lp131
F-0.3238219
aF-0.39762288411255264
aF0.37997269067357464
aF0.0
aa(lp132
F-0.5061012604193826
aF-0.5046892998995907
aF-0.3957180944497075
aF-0.5986403905686271
aa(lp133
F-0.25086282857875153
aF-0.2702893700982959
aF-0.21109034692280979
aF-0.22610000000000002
aa(lp134
F-0.06784405733155341
aF-0.09999945251088091
aF0.44395999356253246
aF0.0
aa(lp135
F0.438507193113124
aF0.0
aF0.0
aF0.0
aa(lp136
F0.8669230674215327
aF0.0
aF0.0
aF0.02119737259205549
aa(lp137
F1.2936542189871887
aF0.05895232948797231
aF0.1289880185042966
aF0.0
aa(lp138
F0.5497507381351635
aF0.3106431031270581
aF0.44249570751738443
aF1.720130454637809
aa(lp139
F1.476342383301612
aF1.5030145988594903
aF1.3590675908256287
aF1.792492326237896
aa(lp140
F0.0
aF0.0
aF0.0
aF0.0
aa(lp141
F0.0
aF0.0
aF0.0
aF0.0
aa(lp142
F0.23752753547747424
aF0.0
aF0.0
aF0.021139898827643763
aa(lp143
F0.5007718159662187
aF0.07237530023274286
aF0.1082471600414052
aF0.011187278385060872
aa(lp144
F0.18181836718376332
aF0.08907644661271645
aF0.5695739176833028
aF-0.027493690704482113
aa(lp145
F-0.04060005659530814
aF0.09697214442989963
aF0.6314407970133835
aF-0.5625631440938365
aa(lp146
F-0.08999999516371336
aF-0.04086604376807992
aF0.6544053071155898
aF0.0
aa(lp147
F0.6355582832443416
aF0.0
aF0.0
aF-0.09107411147647025
aa(lp148
F1.0146070406157348
aF-0.07263824383151755
aF0.014806847247582942
aF-0.1425294965250223
aa(lp149
F1.1150641109874964
aF0.0973727880765536
aF0.21201264944647258
aF0.17411565683519659
aa(lp150
F1.2036158604283922
aF0.10200298803680048
aF0.17965630228857804
aF0.027747166191573608
aa(lp151
F1.292815357241366
aF0.1955523639117139
aF0.11499168578808949
aF0.3631622698725617
aa(lp152
F0.6737617570481326
aF0.5572868541211446
aF0.4848517160518497
aF1.5809174446254797
aa(lp153
F1.2311340598993021
aF1.2866531505107408
aF1.1788298232917158
aF1.46399243795124
aa(lp154
F0.0
aF0.0
aF0.0
aF0.0
aa(lp155
F0.0
aF0.0
aF0.0
aF0.0
aa(lp156
F0.5182222102082146
aF0.1289871430809692
aF0.04131661875172288
aF0.09467551866994052
aa(lp157
F0.5417373319885355
aF0.04306622743507265
aF0.13495129833363437
aF0.060608385385252095
aa(lp158
F0.6300336514515351
aF0.23745284363848598
aF0.15196437863627507
aF0.24502347817884054
aa(lp159
F0.6970048028083955
aF0.29834094647965903
aF0.2647657096107754
aF0.22630192974221242
aa(lp160
F0.7220012276280666
aF0.4866908127157099
aF0.35120448795687675
aF0.3839998578578499
aa(lp161
F0.8052965559650739
aF0.2621185788469767
aF0.34238512292235435
aF0.4578170733368204
aa(lp162
F0.8755360093700639
aF0.46052321002605995
aF0.36823529652109616
aF0.5413635138193764
aa(lp163
F0.9953959564972085
aF0.47817630807649025
aF0.3478178743310151
aF0.6115061600731709
aa(lp164
F1.1116214265004558
aF0.4524063608169173
aF0.4050937815257744
aF0.4370316005897501
aa(lp165
F1.1442257834086775
aF0.42899666149291843
aF0.4195975154414875
aF0.7301411032560262
aa(lp166
F0.8857945806256369
aF0.8422882989457207
aF0.639449027302879
aF1.3081766488400886
aa(lp167
F0.9957960831056366
aF1.0087975388877954
aF0.9129463561895208
aF1.1773668613380899
aa(lp168
F0.0
aF0.0
aF0.0
aF0.0
aa(lp169
F0.0
aF0.0
aF0.0
aF0.0
aa(lp170
F0.4631155408805587
aF0.1521627583635195
aF0.01013400022362353
aF0.11134018568173146
aa(lp171
F0.5088924626854344
aF0.08785348930958212
aF0.13821061112433522
aF0.12558423994297327
aa(lp172
F0.5637871332054973
aF0.06828154785811755
aF0.17113293478447877
aF0.09584905033707253
aa(lp173
F0.2053125802144895
aF0.16365120063222088
aF0.05209191795598346
aF0.6340205447323297
aa(lp174
F0.10258609055420881
aF0.13853946770005332
aF0.1769546485238829
aF0.6746433086455237
aa(lp175
F0.0038746050718636597
aF9.826453116686335e-05
aF9.826453116686335e-05
aF0.624726459683941
aa(lp176
F0.06985253610794569
aF2.285671572738978e-06
aF0.09816650837715146
aF0.7154388513730229
aa(lp177
F0.616626982737848
aF0.07034903913889554
aF0.04115422380036219
aF0.11415184737190576
aa(lp178
F0.641108987432277
aF0.055790272478905334
aF0.15217468354514924
aF0.012643173064247566
aa(lp179
F0.710456245132907
aF0.16387388793827384
aF0.1095051288589758
aF0.30848998161176394
aa(lp180
F0.7060035824025824
aF0.22129140051349938
aF0.28105694029295003
aF0.4392882687599483
aa(lp181
F0.5824706338191932
aF0.5076044396342997
aF0.33823857890222164
aF0.9983740113522667
aa(lp182
F0.0
aF0.0
aF0.0
aF0.0
aa(lp183
F0.0
aF0.0
aF0.0
aF0.0
aa(lp184
F0.0
aF0.0
aF0.0
aF0.0
aa(lp185
F0.0
aF0.0
aF0.0
aF0.0
aa(lp186
F0.0
aF0.0
aF0.0
aF0.0
aa(lp187
F0.0
aF0.0
aF0.0
aF0.0
aa(lp188
F0.0
aF0.0
aF0.0
aF0.0
aa(lp189
F0.0
aF0.0
aF0.0
aF0.0
aa(lp190
F0.0
aF0.0
aF0.0
aF0.0
aa(lp191
F0.0
aF0.0
aF0.0
aF0.0
aa(lp192
F0.0
aF0.0
aF0.0
aF0.0
aa(lp193
F0.0
aF0.0
aF0.0
aF0.0
aa(lp194
F0.0
aF0.0
aF0.0
aF0.0
aa(lp195
F0.0
aF0.0
aF0.0
aF0.0
aa(lp196
F0.0
aF0.0
aF0.0
aF0.0
aa.