(lp0
(lp1
F0.0
aF0.0
aF0.0
aF0.0
aa(lp2
F0.0
aF0.0
aF0.0
aF0.0
aa(lp3
F0.0
aF0.0
aF0.0
aF0.0
aa(lp4
F0.0
aF0.0
aF0.0
aF0.0
aa(lp5
F0.0
aF0.0
aF0.0
aF0.0
aa(lp6
F0.0
aF0.0
aF0.0
aF0.0
aa(lp7
F0.0
aF0.0
aF0.0
aF0.0
aa(lp8
F0.0
aF0.0
aF0.0
aF0.0
aa(lp9
F0.0
aF0.0
aF0.0
aF0.0
aa(lp10
F0.0
aF0.0
aF0.0
aF0.0
aa(lp11
F0.0
aF0.0
aF0.0
aF0.0
aa(lp12
F0.0
aF0.0
aF0.0
aF0.0
aa(lp13
F0.0
aF0.0
aF0.0
aF0.0
aa(lp14
F0.0
aF0.0
aF0.0
aF0.0
aa(lp15
F0.0
aF0.0
aF0.0
aF0.0
aa(lp16
F0.00904363958466798
aF0.0
aF0.0
aF0.0
aa(lp17
F0.07380510132581365
aF0.001326665818643795
aF0.0
aF0.0017560447060911743
aa(lp18
F0.15582262993222723
aF0.005106634790182635
aF0.0
aF0.0
aa(lp19
F0.15218881265664386
aF0.0
aF0.0
aF0.00010014078288856738
aa(lp20
F0.0
aF0.003639454816876216
aF0.4101411474366036
aF0.03249923818433181
aa(lp21
F0.19232694523131663
aF0.0
aF0.0
aF0.0
aa(lp22
F0.4544423694135567
aF0.01782852926235534
aF-8.734577733393558e-05
aF0.0
aa(lp23
F0.9189778572719958
aF0.0
aF0.0
aF0.023882330768214312
aa(lp24
F1.0497737939374956
aF0.0010611519075057038
aF0.45388449526365254
aF0.03150446495121589
aa(lp25
F2.5185077519134556
aF0.0
aF0.382089262358961
aF0.0015356563037789302
aa(lp26
F2.5675306471297716
aF0.13213174519814708
aF0.0
aF0.15959405249509973
aa(lp27
F0.6070796359334711
aF0.1717862492560226
aF4.260076048572875
aF0.97279822039792
aa(lp28
F0.0
aF0.0
aF0.0
aF0.0
aa(lp29
F0.0
aF0.0
aF0.0
aF0.0
aa(lp30
F0.0019951901932499746
aF-2.4203236305834094e-05
aF-0.000373049639420772
aF0.010686346692895426
aa(lp31
F0.03369349212357812
aF0.004783153120867065
aF-1.823410358960735e-05
aF0.004675182978781561
aa(lp32
F-0.1
aF-0.1
aF-0.18983171278012934
aF0.03335912065345526
aa(lp33
F0.4580282693611957
aF-0.09630666326655635
aF-0.199
aF0.17001837863372557
aa(lp34
F-0.0065227523973378125
aF0.08198588695575301
aF-0.08803245965371517
aF0.0
aa(lp35
F1.495860799888998
aF0.0
aF-0.29384078899215393
aF0.04790622657984912
aa(lp36
F-0.07874204268344873
aF0.6827192124956347
aF-0.19405958982922203
aF-0.0684296901246784
aa(lp37
F3.427780771977966
aF0.36771720878138714
aF-0.08593741363773261
aF0.37599531046499285
aa(lp38
F4.607923603293543
aF0.20306359958867068
aF0.06689244173296896
aF0.20157694390823744
aa(lp39
F5.291805705078016
aF0.03432385199768582
aF0.0
aF0.0
aa(lp40
F1.970252272374012
aF2.2519759339715506
aF6.592810445937138
aF0.6848836920262991
aa(lp41
F3.849367862315664
aF4.187778809536129
aF5.694595438746851
aF2.6756934853067085
aa(lp42
F0.0
aF0.0
aF0.0
aF0.0
aa(lp43
F0.0
aF0.0
aF0.0
aF0.0
aa(lp44
F-0.009005197637724133
aF-0.01074863740821607
aF-0.0074434223261933535
aF0.0017962643349207182
aa(lp45
F-0.09590296314985819
aF-0.0008945203270089195
aF-0.029092865559140837
aF-0.026185260950298543
aa(lp46
F-0.20887150687503175
aF-0.08937353296413873
aF-0.10430223028553867
aF-0.0012378457721760848
aa(lp47
F-0.34623860904843445
aF-0.38468471816164784
aF-0.5117133645315111
aF-0.2574503705519778
aa(lp48
F-0.32420000000000004
aF-0.36824119411834727
aF-0.43121
aF0.13400712222194758
aa(lp49
F-0.19321343569552543
aF-0.1269644946401092
aF-0.40826136508140715
aF0.37435521163776675
aa(lp50
F-0.1
aF-0.15945880725091566
aF-0.2171
aF0.629920442256202
aa(lp51
F-0.1
aF-0.17746239224521826
aF-0.09906687271141587
aF0.5844351581366573
aa(lp52
F4.830401098744469
aF0.0
aF0.0
aF0.0
aa(lp53
F0.0
aF0.0
aF0.0
aF0.0
aa(lp54
F6.455836106583829
aF9.332265370370493
aF4.528153459373713
aF5.394923704431972
aa(lp55
F5.496193740882365
aF7.342220071812525
aF5.117475281961006
aF5.341041765123587
aa(lp56
F0.0
aF0.0
aF0.0
aF0.0
aa(lp57
F0.0
aF0.0
aF0.0
aF0.0
aa(lp58
F-0.060245150529570794
aF-0.04355366874499415
aF-0.02612729201097202
aF-0.01441263499286818
aa(lp59
F-0.35956295032909324
aF-0.04067311998229718
aF-0.128117144130883
aF-0.11317022371140846
aa(lp60
F-0.9786239847688513
aF-0.18293924767594374
aF-0.7128506638285516
aF-0.5705085707886934
aa(lp61
F-0.8013233900000001
aF-0.7437224552075374
aF-0.8392820171125448
aF-0.843765881725592
aa(lp62
F-0.7524548527555246
aF-0.7905215865281325
aF-0.6696318800000001
aF-0.8275997236268823
aa(lp63
F-0.6878000000000001
aF-0.8373737571788197
aF-0.8770063952113348
aF-0.6814272185834499
aa(lp64
F-0.38170065759366534
aF-0.41999222614916665
aF-0.3171
aF-0.31932172761246863
aa(lp65
F-0.1
aF-0.1989097338092548
aF-0.09758176847180394
aF-0.15575300837815287
aa(lp66
F1.8863873460115994
aF0.0
aF0.05752306943757851
aF0.0
aa(lp67
F0.0
aF0.0
aF0.0
aF6.7957796321235895
aa(lp68
F4.5809081168708214
aF0.9866072890928229
aF2.1202338376598555
aF3.5317857745015515
aa(lp69
F4.477910711462709
aF4.225283892274906
aF4.28789024676422
aF5.606011888678907
aa(lp70
F0.0
aF0.0
aF0.0
aF0.0
aa(lp71
F0.0
aF0.0
aF0.0
aF0.0
aa(lp72
F-0.05239389218982374
aF-0.05263808793367712
aF-0.037034235866268264
aF-0.023488491800618114
aa(lp73
F-0.23661734497372622
aF-0.3006959064871666
aF-0.20681423577420102
aF-0.13128422905183326
aa(lp74
F-0.5176824085390632
aF-0.5701551626573629
aF-0.7543568163745313
aF-0.46216067829479024
aa(lp75
F-1.1823789
aF-1.0559466428982869
aF-1.0598365114014627
aF-1.0479929645831887
aa(lp76
F-1.3695241453771865
aF-1.1475025196063202
aF-1.399879946728704
aF-1.1891750471091582
aa(lp77
F-0.8937483354890299
aF-0.7406318000000001
aF-1.0563445200000001
aF-0.9167071731726137
aa(lp78
F-0.5634309829689089
aF-0.60582
aF-0.5753772659470021
aF-0.5755032151586948
aa(lp79
F-0.023588276170091023
aF-0.31800000000000006
aF-0.1
aF0.06977486114104395
aa(lp80
F0.026869239202178548
aF0.0
aF0.0
aF1.1601019140511593
aa(lp81
F0.47906430828568236
aF0.0
aF0.001759422803921079
aF1.6882784241543507
aa(lp82
F0.7317598081544044
aF0.9911035902083052
aF0.27461327671085106
aF4.296541902409228
aa(lp83
F3.7575056246694487
aF3.6266758949407434
aF3.4772223732715517
aF4.921869565781398
aa(lp84
F0.0
aF0.0
aF0.0
aF0.0
aa(lp85
F0.0
aF0.0
aF0.0
aF0.0
aa(lp86
F-0.1490704377831275
aF-0.032252676924272264
aF0.14703224785892435
aF-0.08161974332595973
aa(lp87
F-0.19052280550148779
aF0.019404228556227414
aF-0.18983836812566737
aF-0.2257641370562266
aa(lp88
F-0.7183266958270619
aF-0.2899974469418997
aF-0.6292576710192045
aF-0.8789652185524877
aa(lp89
F-1.5062750619365535
aF-1.2415844115749692
aF-1.29746544762916
aF-1.385757333685373
aa(lp90
F-1.7585453966528455
aF-1.6284761386839397
aF-1.5895152120258687
aF-1.6392619668963426
aa(lp91
F-1.3807749502477418
aF-1.2658088479739529
aF-1.2497914728328947
aF-1.3622455206245336
aa(lp92
F-0.5839721592108023
aF-0.589539
aF-0.6222369213607826
aF-0.6860653911106266
aa(lp93
F-0.27037651186069844
aF-0.414929
aF-0.42198503604154636
aF-0.220340793304147
aa(lp94
F0.3554993349474985
aF-0.2177977770362588
aF-0.06239197806969922
aF0.0
aa(lp95
F0.9611874182537303
aF0.0
aF0.0
aF0.0
aa(lp96
F2.686549352373766
aF0.22571067481906062
aF0.6254372959742742
aF1.3731956944704744
aa(lp97
F3.036901438821549
aF2.675058701396862
aF2.724864970739079
aF3.911845807146031
aa(lp98
F0.0
aF0.0
aF0.0
aF0.0
aa(lp99
F0.0
aF0.0
aF0.0
aF0.0
aa(lp100
F-0.037581241156872634
aF0.013603010957696365
aF0.28309042597698786
aF-0.05532621694719046
aa(lp101
F-0.713491489080387
aF0.1879992280159452
aF-0.07676288059787326
aF-0.26836248831052256
aa(lp102
F-0.9767780702058235
aF-0.3671178470803347
aF-0.4486652084959838
aF-0.687170039152023
aa(lp103
F-1.5897115577266074
aF-1.395697449369422
aF-1.5228912812288478
aF-1.6347016534121392
aa(lp104
F-1.2322647053849758
aF-1.043260202362121
aF-0.9421844120950533
aF-1.0529789701322443
aa(lp105
F-1.0742118895774715
aF-1.108172117
aF-1.0281623992801603
aF-0.9577683229224705
aa(lp106
F-0.45740701630791264
aF-0.82278093
aF-0.47719559309693194
aF-0.5753869618655094
aa(lp107
F0.011102048367760423
aF-0.209
aF-0.18528385998718422
aF-0.09906390028634099
aa(lp108
F0.8126170724541915
aF0.0
aF0.049747145682009386
aF0.0
aa(lp109
F1.154817087309645
aF-0.24548984536026636
aF0.05675211148537184
aF0.0
aa(lp110
F2.149390324721509
aF0.0
aF0.4891825525044058
aF0.42049543488994057
aa(lp111
F2.422412275994718
aF2.198572298508953
aF2.1962801842970077
aF2.975032517027456
aa(lp112
F0.0
aF0.0
aF0.0
aF0.0
aa(lp113
F0.0
aF0.0
aF0.0
aF0.0
aa(lp114
F-0.08782782698266803
aF0.007247797704679617
aF0.35757718567825925
aF0.04106777310496211
aa(lp115
F-0.3477123712439883
aF-0.06953208930810176
aF0.31803334404291733
aF-0.21979644561037548
aa(lp116
F-0.6813394776365255
aF-0.0889372902024674
aF-0.4401642068126695
aF-0.5410466763232737
aa(lp117
F-1.0777087987141973
aF-1.018942888409732
aF-0.9779611759247759
aF-1.0015139712171768
aa(lp118
F-0.6077089999999655
aF-0.6380701415480085
aF-0.6474795653823792
aF-0.8376314212605177
aa(lp119
F-0.6448543704027953
aF-0.7627963714523776
aF-0.6488220367169893
aF-0.8893133954938877
aa(lp120
F-0.3244522665705147
aF-0.398
aF-0.3586078644035444
aF-0.414929
aa(lp121
F0.040316073349337365
aF0.0
aF0.0
aF-0.1
aa(lp122
F0.3288155823041795
aF0.0
aF4.442271046072541e-05
aF-0.06971764988594509
aa(lp123
F0.8646393384269028
aF0.018083165544785583
aF0.09820086232465225
aF0.0
aa(lp124
F0.2027396445301887
aF0.29085136365550823
aF1.3702600183154234
aF0.43752834719991973
aa(lp125
F1.897782422570237
aF1.6117959707459057
aF1.751252884040667
aF2.236728449032026
aa(lp126
F0.0
aF0.0
aF0.0
aF0.0
aa(lp127
F0.0
aF0.0
aF0.0
aF0.0
aa(lp128
F0.01895163480685565
aF0.07190193876496515
aF0.4042906347671141
aF0.033964228791229754
aa(lp129
F-0.14848363272864545
aF0.07602985290404227
aF0.4344406826520929
aF-0.08622459919955583
aa(lp130
F-0.45827643217976294
aF-0.14391410921272285
aF0.2964820184325273
aF-0.2520560633694829
aa(lp131
F-0.2759849641138012
aF-0.3059256208011185
aF-0.33257024640759447
aF-0.44994845578940634
aa(lp132
F-0.271
aF-0.19
aF0.27522195302664576
aF-0.5994331474751649
aa(lp133
F-0.19881972312137708
aF-0.18767175172436829
aF0.045788936757560975
aF-0.4215066001635575
aa(lp134
F-0.17020299021835233
aF-0.29091670785790263
aF-0.1988240251933387
aF-0.29631102371068524
aa(lp135
F-0.09993201965800153
aF-0.10890925790845103
aF0.38578683674039665
aF0.0
aa(lp136
F0.6465185600371061
aF0.0
aF0.10908535378902613
aF0.028732022916250606
aa(lp137
F1.1857414913497653
aF0.0
aF0.0
aF0.0
aa(lp138
F1.5109030697263814
aF0.5418582912288381
aF0.7029336227961648
aF1.206683670386048
aa(lp139
F1.5092744175584798
aF1.3915802097292695
aF1.3417802279961035
aF1.703118761534153
aa(lp140
F0.0
aF0.0
aF0.0
aF0.0
aa(lp141
F0.0
aF0.0
aF0.0
aF0.0
aa(lp142
F0.12157863428264756
aF0.06204750878538866
aF0.4672545630173432
aF0.0
aa(lp143
F0.1629353409647738
aF0.10811534680698053
aF0.5470534419572918
aF0.083478490114165
aa(lp144
F0.026578776013799724
aF0.14063727307620516
aF0.4677636562613531
aF-0.3218967496811209
aa(lp145
F0.5527397058266531
aF0.01751068987103365
aF-0.08637028114171943
aF-0.27706566119941
aa(lp146
F0.010617018127278104
aF0.027539060374359388
aF0.6998120291730344
aF-0.18394888965525324
aa(lp147
F0.18473230248919534
aF0.24963910328313244
aF0.7388230066396542
aF-0.19039908731980476
aa(lp148
F-0.02869270316998039
aF0.14305331793627757
aF0.5878633598771039
aF-0.2733515745691433
aa(lp149
F1.0215527351561844
aF0.004933933268364641
aF0.0
aF0.18168233537803966
aa(lp150
F1.0418089068307788
aF0.0
aF0.09673794999689905
aF0.0
aa(lp151
F1.194610411477219
aF0.28865438349549755
aF0.3961841677011814
aF0.4371107432541222
aa(lp152
F1.116443364503814
aF1.0991898426584208
aF0.9029695491373934
aF1.4341892849247124
aa(lp153
F1.2267367299141556
aF1.1838803764566284
aF1.1555424010507598
aF1.3940807529628905
aa(lp154
F0.0
aF0.0
aF0.0
aF0.0
aa(lp155
F0.0
aF0.0
aF0.0
aF0.0
aa(lp156
F0.55747544728295
aF0.3007576687816538
aF0.18151225220964315
aF0.17474118525894614
aa(lp157
F0.5964427331844546
aF0.2131997948637515
aF0.10440837002760037
aF0.22465871564806578
aa(lp158
F0.6318519003796023
aF0.34045082890173606
aF0.1730442910576103
aF0.28545603202191266
aa(lp159
F0.6959223092054964
aF0.31509884799360965
aF0.20394067939558802
aF0.24846050057198
aa(lp160
F0.7413717015770033
aF0.37251443450324917
aF0.3709564651793358
aF0.40534131950797425
aa(lp161
F0.803261697979959
aF0.43384509359906837
aF0.38615092229720493
aF0.3039013382261644
aa(lp162
F0.8282585661795834
aF0.49287549900158356
aF0.3395534928088161
aF0.46433694408139914
aa(lp163
F0.9473827165759999
aF0.5108917025522899
aF0.44865790926670474
aF0.701105137166642
aa(lp164
F1.0353173539021863
aF0.63485595850437
aF0.5018833932944031
aF0.5005182365190098
aa(lp165
F0.5558432346320169
aF0.7338779220243399
aF0.46540282694560664
aF1.1447643607479119
aa(lp166
F0.4789211762101784
aF0.5475352761978726
aF0.3850837602837701
aF1.2017366418021505
aa(lp167
F0.7777485042771998
aF0.6887819120943652
aF0.47753765426082795
aF1.1326944965690104
aa(lp168
F0.0
aF0.0
aF0.0
aF0.0
aa(lp169
F0.0
aF0.0
aF0.0
aF0.0
aa(lp170
F0.09411238158982231
aF0.20993627381925653
aF0.15954322155736206
aF0.4896726733030447
aa(lp171
F0.34971221041860684
aF0.0005833081306758918
aF0.0
aF0.0
aa(lp172
F0.5084892801902748
aF0.041581729281772624
aF0.030381626983852064
aF0.0547299002593849
aa(lp173
F0.005507999644525807
aF0.07987235480748839
aF0.2136397300106551
aF0.586976397699621
aa(lp174
F0.04940122163845903
aF0.09604891717839026
aF0.06999947771135978
aF0.6954931702121743
aa(lp175
F0.5382098196132218
aF0.0
aF0.04361163510991938
aF0.1355538802112537
aa(lp176
F0.7609663029618438
aF0.0
aF0.05943069676360917
aF0.09234415480279735
aa(lp177
F0.7813507492636342
aF0.05738797508136542
aF0.022844527801369818
aF0.1694614706021062
aa(lp178
F0.03289307099023208
aF0.0
aF0.050830944403689016
aF0.9477149790356639
aa(lp179
F0.734794340216478
aF0.06705040359183044
aF0.00043291371828913736
aF0.0
aa(lp180
F0.7559740693288369
aF0.23287680465140304
aF0.22881293813645492
aF0.19515300599323296
aa(lp181
F0.30033228768321923
aF0.19737078498790994
aF0.21989810792066605
aF0.911346822425422
aa(lp182
F0.0
aF0.0
aF0.0
aF0.0
aa(lp183
F0.0
aF0.0
aF0.0
aF0.0
aa(lp184
F0.0
aF0.0
aF0.0
aF0.0
aa(lp185
F0.0
aF0.0
aF0.0
aF0.0
aa(lp186
F0.0
aF0.0
aF0.0
aF0.0
aa(lp187
F0.0
aF0.0
aF0.0
aF0.0
aa(lp188
F0.0
aF0.0
aF0.0
aF0.0
aa(lp189
F0.0
aF0.0
aF0.0
aF0.0
aa(lp190
F0.0
aF0.0
aF0.0
aF0.0
aa(lp191
F0.0
aF0.0
aF0.0
aF0.0
aa(lp192
F0.0
aF0.0
aF0.0
aF0.0
aa(lp193
F0.0
aF0.0
aF0.0
aF0.0
aa(lp194
F0.0
aF0.0
aF0.0
aF0.0
aa(lp195
F0.0
aF0.0
aF0.0
aF0.0
aa(lp196
F0.0
aF0.0
aF0.0
aF0.0
aa.