(lp0
(lp1
F0.0
aF0.0
aF0.0
aF0.0
aa(lp2
F0.0
aF0.0
aF0.0
aF0.0
aa(lp3
F0.0
aF0.0
aF0.0
aF0.0
aa(lp4
F0.0
aF0.0
aF0.0
aF0.0
aa(lp5
F0.0
aF0.0
aF0.0
aF0.0
aa(lp6
F0.0
aF0.0
aF0.0
aF0.0
aa(lp7
F0.0
aF0.0
aF0.0
aF0.0
aa(lp8
F0.0
aF0.0
aF0.0
aF0.0
aa(lp9
F0.0
aF0.0
aF0.0
aF0.0
aa(lp10
F0.0
aF0.0
aF0.0
aF0.0
aa(lp11
F0.0
aF0.0
aF0.0
aF0.0
aa(lp12
F0.0
aF0.0
aF0.0
aF0.0
aa(lp13
F0.0
aF0.0
aF0.0
aF0.0
aa(lp14
F0.0
aF0.0
aF0.0
aF0.0
aa(lp15
F0.0
aF0.0
aF0.0
aF0.0
aa(lp16
F0.0
aF0.0
aF0.004826896112549368
aF0.0
aa(lp17
F0.06845895811605765
aF0.0
aF0.0
aF0.001545089519301764
aa(lp18
F0.7825203465488982
aF0.0
aF0.0607031753198133
aF0.032114620722211926
aa(lp19
F1.1692853362005564
aF0.05426232229597894
aF0.0908966703761741
aF0.1956251400180877
aa(lp20
F1.5273719794884002
aF4.722740168205494e-06
aF0.13688639319771823
aF0.0
aa(lp21
F1.909887378352081
aF0.0
aF0.2566202776258971
aF0.027243386106992958
aa(lp22
F2.3786829008402366
aF0.10668353697910538
aF0.0
aF0.0
aa(lp23
F2.7207890375071537
aF0.5563220622035648
aF0.5822918778069939
aF0.25888482531116674
aa(lp24
F3.1282083143483987
aF0.06568181464516173
aF0.7014720610979768
aF0.0
aa(lp25
F0.003835166882204392
aF0.45919976776798355
aF3.875504718941704
aF0.0
aa(lp26
F3.667031390739261
aF0.41328120530265533
aF0.6960782192580346
aF0.7700251682134647
aa(lp27
F0.5966694927329808
aF0.544211990410939
aF4.466535540780208
aF0.8477064479562832
aa(lp28
F0.0
aF0.0
aF0.0
aF0.0
aa(lp29
F0.0
aF0.0
aF0.0
aF0.0
aa(lp30
F-0.004436490549225868
aF-0.00033990278479787675
aF0.0
aF0.08626555243473093
aa(lp31
F0.23417305760395607
aF0.0
aF0.0003552976986846695
aF0.027172232434511962
aa(lp32
F-0.07721835312339842
aF-0.14409612894177115
aF-0.10454038484071113
aF0.6253485547268646
aa(lp33
F-0.021500014524419752
aF0.24857104016939602
aF-0.2633442733983813
aF0.094493113001375
aa(lp34
F1.0948524863913995
aF0.0
aF-0.18985555068433874
aF0.0
aa(lp35
F2.1506767624001117
aF0.0785003371095544
aF0.0
aF0.10544972253675006
aa(lp36
F2.496659120662891
aF0.0785003371095544
aF-0.10026505938658327
aF0.19015813348979005
aa(lp37
F3.357630274079063
aF0.16741203635704627
aF0.25131838896936093
aF0.3397989357326734
aa(lp38
F3.805880161286024
aF0.2893060742707267
aF1.0
aF0.4185162549408149
aa(lp39
F4.80225140139438
aF0.0
aF3.0485912773487884
aF0.6288097361473881
aa(lp40
F4.541175114857589
aF1.8932611777389476
aF2.2825883788658796
aF1.3964217743827154
aa(lp41
F4.015421193507664
aF3.991340564396976
aF5.797072215542073
aF3.4676786352661866
aa(lp42
F0.0
aF0.0
aF0.0
aF0.0
aa(lp43
F0.0
aF0.0
aF0.0
aF0.0
aa(lp44
F-0.016271196327377092
aF-0.013961602515901526
aF-0.01649164177961762
aF0.03495362201418278
aa(lp45
F-0.30499555371375275
aF-0.1388397809566173
aF-0.12020696257611427
aF0.2559288941841816
aa(lp46
F-0.3407739109130017
aF-0.22220333561454864
aF-0.2558510053501844
aF0.1620937105225941
aa(lp47
F-0.31905229047539174
aF-0.24734592487609844
aF-0.37408479355394586
aF-0.14390183991894823
aa(lp48
F-0.2
aF-0.36887843319254077
aF-0.39620000000000005
aF0.7372622762474402
aa(lp49
F-0.1766071211122775
aF-0.1
aF-0.21800000000000003
aF0.5544157968951127
aa(lp50
F-0.1
aF-0.1
aF-0.2
aF0.27867400139205545
aa(lp51
F-0.1
aF-0.1
aF-0.24312372199123244
aF0.42321985311971033
aa(lp52
F3.4963423177789585
aF0.0
aF0.0
aF0.0
aa(lp53
F0.0
aF0.0
aF0.0
aF0.0
aa(lp54
F6.52948369237333
aF8.498359034505928
aF5.856660988620605
aF5.084731880298628
aa(lp55
F6.2412297337520775
aF7.160618722675159
aF5.682183737257513
aF5.502479707365468
aa(lp56
F0.0
aF0.0
aF0.0
aF0.0
aa(lp57
F0.0
aF0.0
aF0.0
aF0.0
aa(lp58
F-0.04947866722178976
aF-0.025579573818124014
aF-0.03097610293670125
aF0.05330204233458879
aa(lp59
F-0.2609023924275153
aF-0.18628018400253543
aF-0.16908867061434482
aF0.04391783991933061
aa(lp60
F-0.88258450423277
aF-0.20962114188969472
aF-0.6246392526367646
aF-0.4340982760336481
aa(lp61
F-0.8690797100000001
aF-0.6397674276068972
aF-0.918111007293954
aF-0.7690953406736962
aa(lp62
F-0.655263929
aF-0.7356828186443168
aF-0.7814188748785786
aF-0.678253776915658
aa(lp63
F-0.551
aF-0.6420439133275693
aF-0.5313
aF-0.5055020564757506
aa(lp64
F-0.3381414317842726
aF-0.2
aF-0.30000000000000004
aF-0.21630039721376396
aa(lp65
F0.9826485937591005
aF-0.2
aF-0.2771385370517529
aF-0.1
aa(lp66
F1.5614162071788984
aF0.0
aF0.0
aF0.0
aa(lp67
F0.0
aF0.0
aF0.5315670249459225
aF6.652625689708537
aa(lp68
F4.668217054538813
aF3.8411999926226423
aF3.903622798332679
aF6.6946101545365355
aa(lp69
F4.905794585141724
aF5.173311802173574
aF4.367625667701714
aF5.086350000266764
aa(lp70
F0.0
aF0.0
aF0.0
aF0.0
aa(lp71
F0.0
aF0.0
aF0.0
aF0.0
aa(lp72
F-0.09954419757276554
aF-0.04645207061339643
aF-0.07905580035634344
aF-0.049001471012646944
aa(lp73
F-0.5674725135714652
aF-0.2752544386899906
aF-0.40306717222032834
aF-0.16607993851825997
aa(lp74
F-1.0908845999835954
aF-0.4812415881043882
aF-0.7242559210375061
aF-0.6103878460402812
aa(lp75
F-1.4540838173979564
aF-1.4334150557088947
aF-1.7934212935700453
aF-1.4144026075350389
aa(lp76
F-1.6621813871458928
aF-1.5496466472906922
aF-1.847470085083863
aF-1.6196311124277178
aa(lp77
F-0.6098746515415828
aF-0.7756231469082095
aF-1.3260091143744028
aF-0.7595605910000001
aa(lp78
F-0.7211903739228407
aF-1.1439847253015403
aF-0.752222
aF-0.8048902861361705
aa(lp79
F0.496424573863676
aF-0.2
aF-0.29899998432419017
aF-0.3095104631925994
aa(lp80
F1.8961128895556105
aF-0.20828188936360817
aF0.0
aF0.3909327921327568
aa(lp81
F3.950938934523962
aF0.09017185484150611
aF0.24613580987517258
aF0.0
aa(lp82
F3.2537681170805444
aF3.5113741768949827
aF2.6735311973686926
aF4.887611541311093
aa(lp83
F3.9141207940915885
aF4.022969999023481
aF3.4556331871079284
aF4.729092586465617
aa(lp84
F0.0
aF0.0
aF0.0
aF0.0
aa(lp85
F0.0
aF0.0
aF0.0
aF0.0
aa(lp86
F-0.1644222720539218
aF-0.0962231381525094
aF-0.0984251164445631
aF-0.09104732764570478
aa(lp87
F-0.4766417960775047
aF-0.3247880381838519
aF-0.42768284507803256
aF-0.257701952353707
aa(lp88
F-0.7402228766949557
aF-0.3808236830969313
aF-0.7214483660986052
aF-0.5668233440266424
aa(lp89
F-1.8770843043463077
aF-1.5860429838157368
aF-1.6646951013455054
aF-1.5681944504867154
aa(lp90
F-2.3517526521488556
aF-2.067154940860959
aF-2.1103822685849734
aF-1.9337900043569338
aa(lp91
F-1.4648838148926875
aF-1.5162875088719792
aF-1.4928891253779317
aF-1.5615021791528967
aa(lp92
F-0.6331974468720174
aF-0.709058
aF-0.7962206877122586
aF-1.0393066526031112
aa(lp93
F0.30008860110468766
aF-0.00871185879053743
aF-0.1
aF-0.20822177468707226
aa(lp94
F0.8933495274051284
aF0.0
aF0.0
aF0.0
aa(lp95
F0.0
aF0.0
aF0.0
aF2.6674493670093726
aa(lp96
F2.919092411704649
aF0.48353168008314334
aF0.722443199951278
aF1.3479918754041944
aa(lp97
F3.0717115861429556
aF2.9462099370516786
aF2.8421851288162405
aF3.74451398136693
aa(lp98
F0.0
aF0.0
aF0.0
aF0.0
aa(lp99
F0.0
aF0.0
aF0.0
aF0.0
aa(lp100
F-0.22772312695851052
aF-0.03620813761023691
aF0.08783496111782534
aF-0.0805207677412083
aa(lp101
F-0.3340713417612983
aF-0.06157552837865652
aF-0.2565060703500181
aF-0.305850385080345
aa(lp102
F-0.9246547784823431
aF-0.17872992811758842
aF-0.5322346825410447
aF-0.850629262934181
aa(lp103
F-1.6125516048686128
aF-1.5375172180960683
aF-1.6436875402137692
aF-1.6477071944635149
aa(lp104
F-1.3231849533490385
aF-1.221057909804527
aF-1.312354287793054
aF-1.3706069353370958
aa(lp105
F-1.1051520417435097
aF-1.1370539520893714
aF-1.2033026844927768
aF-1.1841253258274527
aa(lp106
F-0.6708240005424543
aF-0.6409252108029297
aF-0.6198279854805386
aF-0.777393049764049
aa(lp107
F-0.4047500861537149
aF-0.3141931672385283
aF-0.24551547070377674
aF-0.2590283036036874
aa(lp108
F0.3655042758228588
aF0.0
aF0.0
aF0.0
aa(lp109
F0.0
aF0.0
aF0.485607243989753
aF0.0
aa(lp110
F2.434251128620264
aF0.04106710364774423
aF0.21187084889803395
aF0.8642557633810433
aa(lp111
F2.539208754315533
aF2.3265012255675894
aF2.300236039254238
aF3.2146315416895432
aa(lp112
F0.0
aF0.0
aF0.0
aF0.0
aa(lp113
F0.0
aF0.0
aF0.0
aF0.0
aa(lp114
F-0.05241290874471784
aF-0.011797072324441996
aF0.1322447187839812
aF-0.050423985389904155
aa(lp115
F-0.40077625943236395
aF-0.2587875155131788
aF0.13568893239755514
aF-0.23197841751800066
aa(lp116
F-0.6362445752361284
aF-0.6847149608737118
aF-0.5375930882450306
aF-0.52090623370353
aa(lp117
F-0.9573338915510747
aF-0.8455800471126926
aF-0.8982733989373857
aF-1.097999314436684
aa(lp118
F-0.8976584358134622
aF-0.8460874041258657
aF-0.7738420367535436
aF-1.0225948663197348
aa(lp119
F-0.4799999995957689
aF-0.5085716846697428
aF-0.34378696382657026
aF-0.5140189862335881
aa(lp120
F-0.09248991411173597
aF-0.2
aF-0.18998345861222554
aF-0.2151993325499973
aa(lp121
F0.032614067354140935
aF-0.20720323008896538
aF-0.1
aF-0.09776973734507041
aa(lp122
F-0.08699763610753444
aF-0.1
aF0.22147441313927044
aF0.0
aa(lp123
F1.016809104299729
aF0.0
aF0.066674822953883
aF0.0
aa(lp124
F1.9179319131362405
aF0.5441899640675457
aF0.7853853291292043
aF0.36906967607583363
aa(lp125
F1.905869635561033
aF1.7768632504213893
aF1.8925144173797255
aF2.5501658236117666
aa(lp126
F0.0
aF0.0
aF0.0
aF0.0
aa(lp127
F0.0
aF0.0
aF0.0
aF0.0
aa(lp128
F0.008490482252814617
aF-0.0018881179997576542
aF0.23870728812243536
aF-0.005898994143605209
aa(lp129
F-0.20857445279693373
aF0.12956933553746147
aF-0.040848294140091744
aF-0.1263296493337764
aa(lp130
F-0.2979302721269814
aF-0.16256518098768977
aF0.28282527546763286
aF-0.3569043541152249
aa(lp131
F-0.1826886621083874
aF-0.1
aF0.3004294648447668
aF-0.23824092869844057
aa(lp132
F-0.26911615982149056
aF-0.199
aF0.15638035972920014
aF-0.4624558435813462
aa(lp133
F-0.35199999999621756
aF-0.1
aF0.10217884248194807
aF-0.09245179135784173
aa(lp134
F-0.1
aF-0.1
aF0.04578846945441356
aF0.0
aa(lp135
F0.06098915171046499
aF0.0
aF0.0
aF-0.09999996612987071
aa(lp136
F0.01693602086648846
aF0.0
aF0.3164113539066719
aF0.0210024892739221
aa(lp137
F1.0231350245053303
aF0.0030414100028344927
aF1.0559915132279119e-05
aF0.0
aa(lp138
F0.5838824082233496
aF0.22979607738410637
aF0.5275691533314216
aF1.8913333764551423
aa(lp139
F1.5534744455442953
aF1.5651241142038734
aF1.4911050928897402
aF2.0570596515131356
aa(lp140
F0.0
aF0.0
aF0.0
aF0.0
aa(lp141
F0.0
aF0.0
aF0.0
aF0.0
aa(lp142
F0.25283658041428436
aF0.02003302798979667
aF0.025949097472639838
aF-0.000992028095073923
aa(lp143
F0.344725138042667
aF0.025034197697862713
aF0.024965420854910172
aF-0.0030109173378305883
aa(lp144
F-0.0275494603868176
aF0.05619869991501556
aF0.3272177197803151
aF-0.1561152125078541
aa(lp145
F0.01362310487539966
aF0.02157900174035022
aF0.44332299216227605
aF-0.2682365066096409
aa(lp146
F-0.10077796813040568
aF-0.02567640096997767
aF0.45418734072375183
aF-0.2632237446629817
aa(lp147
F2.526593192619496e-05
aF0.008252100651305407
aF0.47023647930686463
aF-0.1868751830018343
aa(lp148
F0.4748389337949134
aF0.007947653307373964
aF0.0
aF-0.09965258500625253
aa(lp149
F0.5457585473158497
aF0.0
aF0.0692815695921097
aF-0.08997542911277068
aa(lp150
F1.1125513658400439
aF1.4892352118563414e-08
aF0.047364018511348915
aF0.0
aa(lp151
F1.2528856415937542
aF0.06933377754486457
aF0.058249985300326004
aF0.0
aa(lp152
F0.24375443883411102
aF0.3436715149121393
aF0.3941655608712876
aF1.6616325784288792
aa(lp153
F1.293893716127353
aF1.3168827072126155
aF1.0932615254226854
aF1.6393827881733674
aa(lp154
F0.0
aF0.0
aF0.0
aF0.0
aa(lp155
F0.0
aF0.0
aF0.0
aF0.0
aa(lp156
F0.06971205395411313
aF0.03595027696797546
aF0.3553309241671146
aF0.05388483021094202
aa(lp157
F0.33266773707346914
aF0.018512495663437028
aF0.041789019615664225
aF0.004020982866604835
aa(lp158
F0.05209599651361964
aF0.055365196289093366
aF0.405089669866798
aF0.0736491053863057
aa(lp159
F0.08575151858558558
aF0.11579406854370658
aF0.43357971052545646
aF0.14196094028047263
aa(lp160
F0.5900188269481668
aF0.15830902605688185
aF0.03485956416419647
aF0.024934274329476584
aa(lp161
F0.6647814738488709
aF0.021065813100034005
aF0.11324619016997642
aF0.05907132884406929
aa(lp162
F0.7066123840314817
aF0.18694398673604198
aF0.19874530391181505
aF0.1589279433764057
aa(lp163
F0.7671673346585534
aF0.07067790990378248
aF0.22073923260111533
aF0.132447399283734
aa(lp164
F0.82414848168721
aF0.17806246132033493
aF0.26751592555794207
aF0.0
aa(lp165
F0.9620181103387149
aF0.08769355571040258
aF0.15718914486038832
aF0.39715299202074117
aa(lp166
F0.9900779796560727
aF0.3653794096998879
aF0.25769018170232494
aF0.7419410921384116
aa(lp167
F1.0228920771477545
aF0.8962696622595665
aF0.9163389939406387
aF1.2752821379777437
aa(lp168
F0.0
aF0.0
aF0.0
aF0.0
aa(lp169
F0.0
aF0.0
aF0.0
aF0.0
aa(lp170
F0.373753245064296
aF0.2214216455210098
aF0.19606136730041995
aF0.1458487089291261
aa(lp171
F0.39333680837486956
aF0.17936756833071615
aF0.14407227185950083
aF0.10156368583614855
aa(lp172
F0.4317698515661215
aF0.20419648866793527
aF0.1407604568731468
aF0.16497211412682025
aa(lp173
F0.47045167577254027
aF0.1404501763212787
aF0.2561050857157763
aF0.24062983951934272
aa(lp174
F0.5155580291363215
aF0.24611523753797848
aF0.3051027149084775
aF0.16933499680065953
aa(lp175
F0.5494386728509993
aF0.3237240164499328
aF0.38732668836014117
aF0.4105066493323886
aa(lp176
F0.5943621868014181
aF0.4192109881516043
aF0.1641364351233414
aF0.12934107743343182
aa(lp177
F0.637558051048587
aF0.3777702648123367
aF0.24908605889169344
aF0.1754249271249741
aa(lp178
F0.6710581533233813
aF0.32581857473636205
aF0.28640256878039827
aF0.49167032158113755
aa(lp179
F0.7554722366032618
aF0.3940069270096586
aF0.47927731132168
aF0.45232276321714093
aa(lp180
F0.7848181520505771
aF0.40263948607984756
aF0.49406099844652634
aF0.519587939442699
aa(lp181
F0.7871542759186047
aF0.7304327825161265
aF0.7796447530644206
aF0.905080378633759
aa(lp182
F0.0
aF0.0
aF0.0
aF0.0
aa(lp183
F0.0
aF0.0
aF0.0
aF0.0
aa(lp184
F0.0
aF0.0
aF0.0
aF0.0
aa(lp185
F0.0
aF0.0
aF0.0
aF0.0
aa(lp186
F0.0
aF0.0
aF0.0
aF0.0
aa(lp187
F0.0
aF0.0
aF0.0
aF0.0
aa(lp188
F0.0
aF0.0
aF0.0
aF0.0
aa(lp189
F0.0
aF0.0
aF0.0
aF0.0
aa(lp190
F0.0
aF0.0
aF0.0
aF0.0
aa(lp191
F0.0
aF0.0
aF0.0
aF0.0
aa(lp192
F0.0
aF0.0
aF0.0
aF0.0
aa(lp193
F0.0
aF0.0
aF0.0
aF0.0
aa(lp194
F0.0
aF0.0
aF0.0
aF0.0
aa(lp195
F0.0
aF0.0
aF0.0
aF0.0
aa(lp196
F0.0
aF0.0
aF0.0
aF0.0
aa.