(lp0
(lp1
F0.0
aF0.0
aF0.0
aF0.0
aa(lp2
F0.0
aF0.0
aF0.0
aF0.0
aa(lp3
F0.0
aF0.0
aF0.0
aF0.0
aa(lp4
F0.0
aF0.0
aF0.0
aF0.0
aa(lp5
F0.0
aF0.0
aF0.0
aF0.0
aa(lp6
F0.0
aF0.0
aF0.0
aF0.0
aa(lp7
F0.0
aF0.0
aF0.0
aF0.0
aa(lp8
F0.0
aF0.0
aF0.0
aF0.0
aa(lp9
F0.0
aF0.0
aF0.0
aF0.0
aa(lp10
F0.0
aF0.0
aF0.0
aF0.0
aa(lp11
F0.0
aF0.0
aF0.0
aF0.0
aa(lp12
F0.0
aF0.0
aF0.0
aF0.0
aa(lp13
F0.0
aF0.0
aF0.0
aF0.0
aa(lp14
F0.0
aF0.0
aF0.0
aF0.0
aa(lp15
F0.0
aF0.0
aF0.0
aF0.0
aa(lp16
F0.0
aF0.0
aF0.0
aF0.0
aa(lp17
F0.6232056612721852
aF0.0
aF0.0
aF0.0
aa(lp18
F1.138894556520932
aF0.0
aF0.0
aF0.0
aa(lp19
F2.9107454016228322
aF0.0
aF0.6247757279797025
aF0.2505724522314265
aa(lp20
F0.0
aF0.2947200021068004
aF3.2188482514549976
aF0.4688461469008758
aa(lp21
F0.18858633281412568
aF0.296252673712072
aF3.4506311202206508
aF0.8254312429697895
aa(lp22
F0.0
aF0.0803840478215607
aF2.51372038258674
aF0.0
aa(lp23
F0.8987298904287334
aF0.0
aF0.42654454919670093
aF0.0
aa(lp24
F2.020321535123112
aF0.0
aF0.0
aF0.007233053087022318
aa(lp25
F2.9291408351629595
aF0.0
aF0.0
aF0.00018037053138626315
aa(lp26
F3.76237713574222
aF0.0
aF1.1863426868451725
aF1.2016434439735733
aa(lp27
F1.879521244451245
aF1.105175600289589
aF4.489752091612664
aF0.6614081054693266
aa(lp28
F0.0
aF0.0
aF0.0
aF0.0
aa(lp29
F0.0
aF0.0
aF0.0
aF0.0
aa(lp30
F0.15630914370572357
aF0.0
aF0.0
aF0.0
aa(lp31
F0.5838734169980435
aF4.828875560253505e-06
aF1.5140904887843663
aF0.14714245922447478
aa(lp32
F2.817557661242225
aF0.7074063899283571
aF-0.004761136157764634
aF0.23944943997315757
aa(lp33
F1.8630045073870787
aF0.6320489876760194
aF-0.24489308619807898
aF2.6562583516272706
aa(lp34
F3.47400825485211
aF0.4902242022939129
aF0.13932019956461533
aF0.49119310396440574
aa(lp35
F4.069749549754773
aF0.9842992082046493
aF-0.06921137032117808
aF0.2001804112736482
aa(lp36
F3.787283075599769
aF1.2698100362038351
aF0.9607276100400934
aF0.1714122402039055
aa(lp37
F4.834172920265039
aF1.8709378748857266
aF0.7251200033407643
aF0.2986885173405579
aa(lp38
F5.105556835193808
aF0.6452729035961473
aF1.4315596891865505
aF0.006642368862010012
aa(lp39
F5.632510757139686
aF0.8609268917232302
aF4.8055442929148136
aF1.1923133009259599
aa(lp40
F3.189039118051074
aF0.6384242792603178
aF6.724657627543403
aF1.9337995933482666
aa(lp41
F3.851885570548954
aF4.362249111886613
aF5.986674124994192
aF2.718100498594435
aa(lp42
F0.0
aF0.0
aF0.0
aF0.0
aa(lp43
F0.0
aF0.0
aF0.0
aF0.0
aa(lp44
F1.4822180467565131
aF0.03189385853325404
aF0.13538269862218932
aF0.034848799993725116
aa(lp45
F0.16390159397812884
aF0.20877256641921316
aF0.1539790558186036
aF1.8508583524396114
aa(lp46
F-0.09064570121492091
aF0.2514231688393398
aF0.04745441631059412
aF2.3052755184866536
aa(lp47
F-0.21814622069571638
aF-0.199
aF-0.5996098825867908
aF1.8484967663392424
aa(lp48
F-0.1
aF-0.1
aF-0.209
aF2.0777425566704797
aa(lp49
F0.03318411482743486
aF-0.1
aF-0.2171
aF2.6657756283496625
aa(lp50
F-0.1
aF-0.08127860137231847
aF-0.19190000000000002
aF2.8319458926988017
aa(lp51
F-0.1
aF-0.054356179844984524
aF-0.1103418898343644
aF2.4107226621604942
aa(lp52
F5.1341504511780665
aF0.0
aF0.0
aF0.4896700099496945
aa(lp53
F0.0
aF0.0
aF0.0
aF0.0
aa(lp54
F6.5380820473940595
aF8.80358779060686
aF3.9561721317428553
aF5.7594152173679865
aa(lp55
F6.1261306212437106
aF6.939182061553254
aF5.567936992200532
aF5.559587898193863
aa(lp56
F0.0
aF0.0
aF0.0
aF0.0
aa(lp57
F0.0
aF0.0
aF0.0
aF0.0
aa(lp58
F0.012452113396416765
aF0.0518375857633498
aF-0.0047307394731227175
aF1.2252748411744308
aa(lp59
F-0.18490971695261438
aF0.16936476648462753
aF-0.008998768610628365
aF1.675374385540672
aa(lp60
F-0.6070425514055495
aF1.1348401856942385
aF-0.5380930075381409
aF-0.2667537920488946
aa(lp61
F-0.6894514513229657
aF-0.586925758428968
aF-0.6409027997098496
aF-0.43878183605001114
aa(lp62
F-0.398
aF-0.4943659780389971
aF-1.0770546161414494
aF-0.2362187836559445
aa(lp63
F-0.3520875492315308
aF-0.40571664832875504
aF-0.5880000000000001
aF0.06986228380434831
aa(lp64
F-0.46439251796108283
aF-0.389
aF-0.38
aF-0.34255327844179484
aa(lp65
F0.17193187814412453
aF-0.209
aF0.0
aF0.0
aa(lp66
F1.1344528693113736
aF0.0
aF0.05392633418599174
aF0.0
aa(lp67
F3.828168441947012
aF0.0
aF0.0
aF0.0
aa(lp68
F2.3397211448263437
aF0.7310267614595027
aF3.825014576533445
aF0.0
aa(lp69
F4.7302819928941835
aF3.7356663867632927
aF4.54561212483925
aF5.251168718796365
aa(lp70
F0.0
aF0.0
aF0.0
aF0.0
aa(lp71
F0.0
aF0.0
aF0.0
aF0.0
aa(lp72
F-0.044043655736581096
aF0.1476637291644145
aF0.09935153460156636
aF1.1875033863529691
aa(lp73
F-0.5452048313224352
aF-0.135379692944322
aF-0.14846548752993005
aF0.993123467486932
aa(lp74
F-0.9149418862143237
aF0.48319564533641557
aF-0.6077055080093191
aF-0.649218698584884
aa(lp75
F-1.4159454104485705
aF-1.3868558228043395
aF-1.4119053631110008
aF-1.2962824242253836
aa(lp76
F-1.3938758162564089
aF-1.1024000294753815
aF-1.2239224265345858
aF-1.1136704153327583
aa(lp77
F-1.1751159644226048
aF-1.2499426200000001
aF-1.3746530860347572
aF-1.230182060807749
aa(lp78
F-0.6316131180711626
aF-0.9016280310000002
aF-0.5851099256995587
aF-0.48602647559843815
aa(lp79
F-0.19
aF-0.2985901236518651
aF-0.2
aF-0.34159926336667756
aa(lp80
F-0.0956784724667253
aF-0.1
aF-0.09863548457400063
aF0.13691591456988492
aa(lp81
F-0.08964895194134298
aF-0.09959048186221131
aF1.4830727929343535
aF0.0
aa(lp82
F3.5400362125786735
aF1.8962534390889851
aF0.851770707575837
aF2.603492565256483
aa(lp83
F4.021707726700082
aF3.631382447331208
aF3.6304605954192364
aF4.356623326782549
aa(lp84
F0.0
aF0.0
aF0.0
aF0.0
aa(lp85
F0.0
aF0.0
aF0.0
aF0.0
aa(lp86
F-0.29723880148577675
aF0.05800518263756564
aF-0.05527254843635977
aF1.082892796699876
aa(lp87
F-0.5749398507895124
aF0.5095406960065949
aF-0.19385562346547996
aF-0.0365991965886949
aa(lp88
F-1.3077532176628173
aF-0.22782653860180135
aF-0.8025803893902795
aF-0.8944457949414827
aa(lp89
F-1.538047483067519
aF-0.8959851205875147
aF-1.1237037354152921
aF-1.135387897356878
aa(lp90
F-1.7258460736356742
aF-1.4856019219546008
aF-1.757414211464496
aF-1.6567528662129747
aa(lp91
F-1.3222538625640872
aF-1.2970819694798386
aF-1.272957163027118
aF-1.4125205845681612
aa(lp92
F-0.6735655347917477
aF-0.7184927000000001
aF-0.8077880823075867
aF-0.6850731359375549
aa(lp93
F-0.3948633720559394
aF-0.06504406776411017
aF-0.27099537543585317
aF-0.2
aa(lp94
F0.26234735293431444
aF0.0
aF0.0
aF0.0
aa(lp95
F1.2772881359543313
aF-0.1
aF0.09805434225645925
aF0.33330450804957357
aa(lp96
F0.0
aF0.31114300017713414
aF0.24445299702902556
aF3.4769961494072916
aa(lp97
F3.1220281448136658
aF3.130718173603634
aF2.8781156360243556
aF3.598955174455262
aa(lp98
F0.0
aF0.0
aF0.0
aF0.0
aa(lp99
F0.0
aF0.0
aF0.0
aF0.0
aa(lp100
F-0.1334082595276881
aF-0.05286217590573446
aF-0.037633598757122924
aF0.6420567653389647
aa(lp101
F-0.33482309464776144
aF-0.2976625513401439
aF-0.11665728500157899
aF-0.36543108839931404
aa(lp102
F-0.9372164318570373
aF-0.5052304699808687
aF-0.7270071262829434
aF-0.6648627011648786
aa(lp103
F-1.1258530070438915
aF-1.1156843753215941
aF-1.066022271409184
aF-1.1017765744905461
aa(lp104
F-1.4109458540963613
aF-1.1609036357713642
aF-1.1969006570509397
aF-1.1762285689193146
aa(lp105
F-0.9358017451976728
aF-1.098725783697693
aF-0.9880666695618021
aF-0.9288408000000001
aa(lp106
F-0.4965183481423481
aF-0.47434100627178055
aF-0.38684206643602326
aF-0.38
aa(lp107
F-0.2561721188591228
aF-0.199
aF-0.24085823559934247
aF-0.2
aa(lp108
F-0.08191229674075289
aF-0.04401399147363636
aF0.17907098614559352
aF0.0
aa(lp109
F0.9996654407891638
aF4.824082651661433e-07
aF0.0
aF0.044725459404258906
aa(lp110
F2.336860390401319
aF0.3490290956633091
aF0.17662597672021335
aF0.31345898509268133
aa(lp111
F2.38958715231089
aF2.0720840740762037
aF2.179618499889407
aF2.5521574001019927
aa(lp112
F0.0
aF0.0
aF0.0
aF0.0
aa(lp113
F0.0
aF0.0
aF0.0
aF0.0
aa(lp114
F-0.023705463144779303
aF-0.004130056293538879
aF0.10918216581570386
aF-0.008727733312329521
aa(lp115
F-0.3835283577528276
aF-0.1802597985434583
aF0.07715776677310607
aF-0.15250956315289585
aa(lp116
F-0.6106914687421254
aF-0.45658987047671407
aF-0.20594401998357623
aF-0.44905912458446917
aa(lp117
F-1.0510502052514656
aF-1.104850839626371
aF-1.1345989945577324
aF-0.9459974335004424
aa(lp118
F-0.680428512684666
aF-0.5914095126846659
aF-0.6172393774537629
aF-0.8295541630271179
aa(lp119
F-0.5589934078281377
aF-0.5892338
aF-0.48372592522798064
aF-0.7653000000000001
aa(lp120
F-0.09935834682625944
aF-0.299
aF-0.27651815648941225
aF-0.27638460453146874
aa(lp121
F0.11023699585354121
aF0.0
aF-0.09667080795475841
aF-0.10923841691960752
aa(lp122
F0.6760799339223827
aF0.0
aF0.0
aF0.0
aa(lp123
F1.4647292487075232
aF0.0
aF0.0
aF0.0
aa(lp124
F1.8742540809160941
aF0.5923612209490097
aF0.6471038884389608
aF0.7023518797248697
aa(lp125
F1.8916316046516923
aF1.783063554703773
aF1.7266724569947696
aF1.9551095524477453
aa(lp126
F0.0
aF0.0
aF0.0
aF0.0
aa(lp127
F0.0
aF0.0
aF0.0
aF0.0
aa(lp128
F-0.019867441097459304
aF0.0006433798375504868
aF0.0731853483102977
aF-0.0003280005843271993
aa(lp129
F-0.17094585238641857
aF0.012601225216172015
aF0.24234831846080018
aF-0.02057218815966414
aa(lp130
F-0.35890199952405355
aF-0.2788775113082915
aF0.2635499472651255
aF-0.264755403674772
aa(lp131
F-0.2637106808629756
aF-0.2684256574724806
aF-0.04580323994112458
aF-0.23582000000000003
aa(lp132
F-0.18999981774691654
aF-0.27239905335475634
aF0.12565467073992911
aF-0.09968655807050403
aa(lp133
F-0.19
aF-0.2
aF0.11735548341631036
aF-0.4052
aa(lp134
F-0.1
aF-0.1
aF-0.056191405380826565
aF-0.2
aa(lp135
F-0.1
aF-0.19
aF-0.012225267676482427
aF-0.09216552326773374
aa(lp136
F-0.024226432968464343
aF-0.1
aF0.16453584752934647
aF0.0
aa(lp137
F0.6895983663504732
aF0.0
aF0.0
aF0.1728046567909909
aa(lp138
F0.3949057168423172
aF0.05320487697753943
aF0.07603069827550701
aF1.8322218442887392
aa(lp139
F1.6147214513412136
aF1.5698710189352192
aF1.4836102331979029
aF1.6751861348690105
aa(lp140
F0.0
aF0.0
aF0.0
aF0.0
aa(lp141
F0.0
aF0.0
aF0.0
aF0.0
aa(lp142
F0.19362454018176736
aF0.0006873733552804015
aF0.0
aF0.0
aa(lp143
F0.26411598653840895
aF0.003308367071143543
aF0.0
aF0.016459797217670956
aa(lp144
F-0.02331015922221482
aF0.027546398015279937
aF0.4209134170992296
aF-0.2201712578570162
aa(lp145
F0.36202771434853726
aF0.0063177319546991574
aF0.10603789730784692
aF0.0
aa(lp146
F-0.025872748139145474
aF0.06640703852510355
aF0.4819985346457561
aF-0.18777737457392213
aa(lp147
F-0.06018249394336683
aF-0.04378437619182987
aF0.4569145209600209
aF0.0
aa(lp148
F-0.03158192296723302
aF0.03285248553211094
aF0.5043079208562062
aF-0.09937465143579323
aa(lp149
F0.5526517156358041
aF0.06177150085361925
aF0.0
aF0.0
aa(lp150
F0.8259029358286265
aF0.0
aF0.0
aF0.007013491799287341
aa(lp151
F1.1600437955147773
aF0.2175872723354203
aF0.3575943610073248
aF0.30632088923228484
aa(lp152
F0.3805130107953225
aF0.988419631776266
aF0.6523073474816362
aF0.24124031194335732
aa(lp153
F1.2685296710105465
aF1.1225049306311072
aF1.2671169941843832
aF1.44338434178475
aa(lp154
F0.0
aF0.0
aF0.0
aF0.0
aa(lp155
F0.0
aF0.0
aF0.0
aF0.0
aa(lp156
F0.4034169369789937
aF0.06750009170334756
aF0.20764077919534252
aF0.02676363066145152
aa(lp157
F0.4341896937477189
aF0.03662569523131757
aF0.04172309188486724
aF0.03781197774802834
aa(lp158
F0.19425522323685052
aF0.09778894168252927
aF0.4570076087680473
aF0.13774234961095672
aa(lp159
F0.5678262222738544
aF0.0032759325773846952
aF0.044416043572042714
aF0.05456093690261734
aa(lp160
F0.6020970129189387
aF0.12676956941816742
aF0.04711288303517849
aF0.05768641559366262
aa(lp161
F0.6814932143334227
aF0.09592692283948162
aF0.060453207995836644
aF0.0635725227331074
aa(lp162
F0.7301402954911916
aF0.31585814178157295
aF0.23279736681317137
aF0.12384969419078766
aa(lp163
F0.817458438595718
aF0.43086473891354254
aF0.25118940185772215
aF0.3462368918291272
aa(lp164
F0.8953283882330383
aF0.5944800653883804
aF0.30435180423043534
aF0.49794693008195423
aa(lp165
F0.9719374277230001
aF0.4035435314004635
aF0.5171914556218877
aF0.555796151114994
aa(lp166
F1.0037784187301813
aF0.6461129715105587
aF0.6271647315782989
aF0.9122894828782692
aa(lp167
F1.0313287837683802
aF0.8267835121994833
aF0.8273487623038257
aF1.1472097096151075
aa(lp168
F0.0
aF0.0
aF0.0
aF0.0
aa(lp169
F0.0
aF0.0
aF0.0
aF0.0
aa(lp170
F0.42372564384012945
aF0.19701865036211325
aF0.148081045554423
aF0.1626489613751054
aa(lp171
F0.45648798094728615
aF0.06815006366936134
aF0.014780413978676849
aF0.08731990203678455
aa(lp172
F0.5121612004280179
aF0.06651185980812632
aF0.08251973400306828
aF0.2771281221843678
aa(lp173
F0.5289955866926969
aF0.2006770985390728
aF0.33408118573049855
aF0.14390179451978363
aa(lp174
F0.580348653398543
aF0.14911486248753797
aF0.2434262658642268
aF0.1120800917621842
aa(lp175
F0.6216079796321541
aF0.17708766061664546
aF0.23814307172424096
aF0.3159373968084167
aa(lp176
F0.20170988188636987
aF0.36728350757201306
aF0.1699799143537538
aF0.6855056103481194
aa(lp177
F0.02772616039859644
aF0.1988912352470912
aF0.17303894479926776
aF0.7440203888771383
aa(lp178
F0.6885140167183353
aF0.043443846093899244
aF0.023050891164794186
aF0.0
aa(lp179
F0.7446550460252364
aF0.06693388833153632
aF0.10028597053767169
aF0.07124939474358193
aa(lp180
F0.25340066275782824
aF0.2064093697367621
aF0.26663237005698537
aF0.954277011477633
aa(lp181
F0.4198426276401282
aF0.7878710390319482
aF0.2415983640376229
aF0.5296366342836856
aa(lp182
F0.0
aF0.0
aF0.0
aF0.0
aa(lp183
F0.0
aF0.0
aF0.0
aF0.0
aa(lp184
F0.0
aF0.0
aF0.0
aF0.0
aa(lp185
F0.0
aF0.0
aF0.0
aF0.0
aa(lp186
F0.0
aF0.0
aF0.0
aF0.0
aa(lp187
F0.0
aF0.0
aF0.0
aF0.0
aa(lp188
F0.0
aF0.0
aF0.0
aF0.0
aa(lp189
F0.0
aF0.0
aF0.0
aF0.0
aa(lp190
F0.0
aF0.0
aF0.0
aF0.0
aa(lp191
F0.0
aF0.0
aF0.0
aF0.0
aa(lp192
F0.0
aF0.0
aF0.0
aF0.0
aa(lp193
F0.0
aF0.0
aF0.0
aF0.0
aa(lp194
F0.0
aF0.0
aF0.0
aF0.0
aa(lp195
F0.0
aF0.0
aF0.0
aF0.0
aa(lp196
F0.0
aF0.0
aF0.0
aF0.0
aa.