(lp0
(lp1
F0.0
aF0.0
aF0.0
aF0.0
aa(lp2
F0.0
aF0.0
aF0.0
aF0.0
aa(lp3
F0.0
aF0.0
aF0.0
aF0.0
aa(lp4
F0.0
aF0.0
aF0.0
aF0.0
aa(lp5
F0.0
aF0.0
aF0.0
aF0.0
aa(lp6
F0.0
aF0.0
aF0.0
aF0.0
aa(lp7
F0.0
aF0.0
aF0.0
aF0.0
aa(lp8
F0.0
aF0.0
aF0.0
aF0.0
aa(lp9
F0.0
aF0.0
aF0.0
aF0.0
aa(lp10
F0.0
aF0.0
aF0.0
aF0.0
aa(lp11
F0.0
aF0.0
aF0.0
aF0.0
aa(lp12
F0.0
aF0.0
aF0.0
aF0.0
aa(lp13
F0.0
aF0.0
aF0.0
aF0.0
aa(lp14
F0.0
aF0.0
aF0.0
aF0.0
aa(lp15
F0.0
aF0.0
aF0.0
aF0.0
aa(lp16
F0.0
aF0.0
aF0.0
aF0.0
aa(lp17
F0.0037629431819739666
aF0.0
aF0.0
aF0.0
aa(lp18
F0.16561241524810727
aF1.827082511451844e-05
aF0.00012466420581877874
aF0.0
aa(lp19
F0.2109634800500928
aF0.0
aF0.00010997496460930033
aF0.01093840601597351
aa(lp20
F0.4137395186183175
aF0.0
aF0.0
aF0.06576415604783302
aa(lp21
F0.05896787616849026
aF0.0
aF0.7592483228428509
aF0.0
aa(lp22
F0.49990412902906856
aF0.0
aF0.09789974364671078
aF0.037862636937819924
aa(lp23
F0.7570989730793614
aF0.0
aF0.0
aF0.0
aa(lp24
F1.7027288459638785
aF0.0
aF0.37396179574614885
aF0.021321108066487196
aa(lp25
F2.32454899762492
aF0.1157468270664628
aF0.0
aF0.0
aa(lp26
F3.2459124137608235
aF0.0
aF1.0839418997047576
aF0.04361966899807887
aa(lp27
F0.7539240282000035
aF0.1532651642885405
aF4.319234400207538
aF0.7292123094713795
aa(lp28
F0.0
aF0.0
aF0.0
aF0.0
aa(lp29
F0.0
aF0.0
aF0.0
aF0.0
aa(lp30
F0.008353723586856711
aF0.0
aF0.0
aF0.0
aa(lp31
F0.03638707881870377
aF0.00040816996114907944
aF-0.00011155477581421918
aF0.0
aa(lp32
F-0.0995019034857406
aF0.0006365435431798512
aF-0.09996665091555561
aF0.09670167639294458
aa(lp33
F-0.006201905897655377
aF-0.09991433740635508
aF-0.09
aF0.15239290518574547
aa(lp34
F-0.09860853275388258
aF-0.0018974614248792054
aF-0.10045599584542718
aF0.15643200201796753
aa(lp35
F1.0516931404248897
aF-0.09952424921077062
aF-0.1
aF-0.07047074563452214
aa(lp36
F1.7471428200149848
aF0.005362544636929602
aF-0.0797249638
aF0.009486107558023371
aa(lp37
F2.4722369519007965
aF0.279693595265846
aF0.0
aF0.0
aa(lp38
F3.0861886303150294
aF0.0
aF1.0
aF0.29052993938535376
aa(lp39
F4.086431054488357
aF0.0
aF1.0
aF0.0
aa(lp40
F4.36925702690206
aF1.5212925449826822
aF1.1984531012682702
aF1.3035120100743782
aa(lp41
F2.8978114208298025
aF3.9377021185688923
aF5.445580809710107
aF2.2420847870673266
aa(lp42
F0.0
aF0.0
aF0.0
aF0.0
aa(lp43
F0.0
aF0.0
aF0.0
aF0.0
aa(lp44
F-0.0008028155360974208
aF-0.00025879617704378707
aF-6.662095548310656e-05
aF0.007189484271388177
aa(lp45
F-0.1796209778831251
aF-0.08084197153067238
aF-0.010001768099746802
aF0.018397975736794064
aa(lp46
F-0.28001994992754087
aF0.0019223845174013063
aF-0.14302850809769244
aF-0.013570618401450178
aa(lp47
F-0.199
aF-0.199
aF-0.23508352956322695
aF-0.3052772827664258
aa(lp48
F-0.18507610000000002
aF-0.199
aF-0.19534969375298528
aF-0.062281193522391406
aa(lp49
F-0.1081
aF-0.09998747679478495
aF-0.1
aF0.1326333308222026
aa(lp50
F0.4399301368330078
aF-0.18347923651073333
aF-0.2
aF-0.09588720389258262
aa(lp51
F1.984401249073711
aF-0.1
aF1.723534856913149e-05
aF0.0
aa(lp52
F3.3450581103300783
aF0.0
aF0.0
aF0.0
aa(lp53
F0.0
aF0.0
aF0.0
aF0.0
aa(lp54
F6.8497924296057775
aF8.469234041083572
aF4.646498511226378
aF4.341575394922847
aa(lp55
F5.731783640290204
aF6.494342830985448
aF5.296468779061815
aF5.526252715309982
aa(lp56
F0.0
aF0.0
aF0.0
aF0.0
aa(lp57
F0.0
aF0.0
aF0.0
aF0.0
aa(lp58
F-0.034371185904950224
aF-0.004786819156351603
aF-0.0016192446325110866
aF0.0041476083390422505
aa(lp59
F-0.5720510536944494
aF0.0016829154169710637
aF-0.02039786773331721
aF-0.11540539000000001
aa(lp60
F-0.796725746047521
aF-0.037232968811594734
aF-0.3423331190738926
aF-0.23365013821011898
aa(lp61
F-0.8071322686250586
aF-0.6722004656287834
aF-0.7022370724746736
aF-0.6899525720964852
aa(lp62
F-0.5499235812800001
aF-0.48434492900000004
aF-0.5086631
aF-0.475712776965182
aa(lp63
F-0.398
aF-0.209
aF-0.2
aF-0.2639912514158514
aa(lp64
F-0.38378765914909513
aF-0.2
aF-0.3171
aF-0.21252226636000002
aa(lp65
F0.3990783898025939
aF-0.2
aF-0.2
aF-0.1
aa(lp66
F0.3033843862289908
aF0.0
aF0.0
aF0.0
aa(lp67
F0.6616824470195342
aF-0.1
aF0.0
aF6.961961632266949
aa(lp68
F4.904191486832344
aF1.4025276202639791
aF0.9583225792660179
aF2.5666841206055855
aa(lp69
F5.0299623119265595
aF4.502162449860169
aF4.3022230609836205
aF5.260057914611588
aa(lp70
F0.0
aF0.0
aF0.0
aF0.0
aa(lp71
F0.0
aF0.0
aF0.0
aF0.0
aa(lp72
F-0.08724542546826804
aF-0.041899664216181506
aF-0.043374639303509696
aF-0.01293645545952712
aa(lp73
F-0.25471699067149967
aF-0.046871466129317904
aF-0.143707463417474
aF-0.13771956687843226
aa(lp74
F-0.5577418810000001
aF-0.14520030523110697
aF-0.2892441153358703
aF-0.440366929123558
aa(lp75
F-1.0492380704887316
aF-0.7892853846672495
aF-0.8466095229601046
aF-0.8127832367647185
aa(lp76
F-1.1636138897484267
aF-0.893156220414864
aF-0.9650520243851526
aF-1.0601291446189365
aa(lp77
F-0.7554882162996791
aF-0.7381776712168253
aF-0.8043275609859077
aF-0.7174956033214266
aa(lp78
F-0.2996524846548496
aF-0.5880000000000001
aF-0.5545445356326723
aF-0.38
aa(lp79
F0.034007568717635994
aF-0.2
aF-0.299
aF-0.37683266992245523
aa(lp80
F0.7680051765652673
aF-0.05581319534371032
aF0.0
aF0.0
aa(lp81
F1.4767604825343428
aF0.0
aF0.02625214816249106
aF0.0
aa(lp82
F3.5281123694462693
aF0.5182054270696062
aF1.0837227727424412
aF0.5601997956471385
aa(lp83
F3.7973270207295546
aF3.664216882141534
aF3.674985018402319
aF4.250432768388726
aa(lp84
F0.0
aF0.0
aF0.0
aF0.0
aa(lp85
F0.0
aF0.0
aF0.0
aF0.0
aa(lp86
F-0.08219495393256537
aF-0.0031711436605523276
aF0.10060411484802341
aF-0.04212174124453348
aa(lp87
F-0.26693833617269214
aF-0.10376584718878379
aF-0.20139680683685915
aF-0.2804082161442269
aa(lp88
F-0.7797952796100786
aF-0.32158875667785364
aF-0.7298420157198559
aF-0.642342311328924
aa(lp89
F-1.1257802200306664
aF-1.1100868060423421
aF-1.135608612761611
aF-1.1227840236677866
aa(lp90
F-1.4119422444469958
aF-1.434231053414187
aF-1.3683717993888254
aF-1.4571202280709474
aa(lp91
F-0.7538147355524708
aF-0.7853954600850979
aF-0.8042330661725132
aF-0.8617800000000001
aa(lp92
F-0.6518047285296951
aF-0.7815000000000001
aF-0.643497061694119
aF-1.0121609258879447
aa(lp93
F-0.15332682267200942
aF-0.2
aF-0.07370178287042067
aF-0.1927317019933279
aa(lp94
F0.6108864309018285
aF0.0
aF0.0
aF0.0
aa(lp95
F1.297642197468417
aF0.0
aF0.0
aF0.0
aa(lp96
F2.617367987053113
aF0.4490808500389258
aF0.39297318020088257
aF1.2281465931384525
aa(lp97
F3.1080545002659137
aF2.7345713307601494
aF2.836218423457369
aF3.3943214660320145
aa(lp98
F0.0
aF0.0
aF0.0
aF0.0
aa(lp99
F0.0
aF0.0
aF0.0
aF0.0
aa(lp100
F-0.06527898392744483
aF0.10091141592150554
aF0.2651222931144398
aF-0.04815910534752595
aa(lp101
F-0.5198129465061575
aF-0.029413056285180643
aF-0.1552157472021238
aF-0.16569212975203174
aa(lp102
F-1.2052687975599845
aF-0.40225789578533977
aF-0.6835304132472225
aF-0.5811427966825817
aa(lp103
F-1.3277893265672405
aF-1.2082625221139052
aF-1.334596585086519
aF-1.42909491244841
aa(lp104
F-1.392109555336631
aF-1.481782169510061
aF-1.4816277900554238
aF-1.3756832400360002
aa(lp105
F-0.7111689209661561
aF-0.7116618
aF-0.8463919738228084
aF-0.8003902269343885
aa(lp106
F-0.25593952637743145
aF-0.30000000000000004
aF-0.2779351176753909
aF-0.4475
aa(lp107
F-0.0860236196239127
aF-0.21700484767582695
aF-0.07956213980107144
aF-0.20363490035376036
aa(lp108
F0.6915984205697789
aF0.0
aF0.0
aF-0.1
aa(lp109
F0.8536308542478568
aF-0.06750301127999814
aF0.179400023437624
aF0.0
aa(lp110
F2.4670469273037225
aF0.22480515318411626
aF0.9227056212742547
aF1.2158100960706626
aa(lp111
F2.4351407414330866
aF2.389348283519042
aF2.324835841442412
aF2.9303014378947387
aa(lp112
F0.0
aF0.0
aF0.0
aF0.0
aa(lp113
F0.0
aF0.0
aF0.0
aF0.0
aa(lp114
F-0.03214722388364097
aF0.12374583900625188
aF0.3371542383843945
aF-0.010394482529036578
aa(lp115
F-0.5024538835914072
aF0.26410892549453724
aF-0.02442877374528296
aF-0.1030515661756714
aa(lp116
F-1.5065107227624663
aF0.089782697306599
aF-0.370326864961665
aF-0.5169033137187553
aa(lp117
F-0.7537730830023388
aF-0.5460803499144637
aF-0.6974723083768224
aF-0.9487164694952817
aa(lp118
F-0.8318396110445578
aF-0.8256839518833432
aF-0.7587874038963802
aF-0.9977140734446996
aa(lp119
F-0.34760610585915164
aF-0.398
aF-0.4187607117567645
aF-0.6487748920966157
aa(lp120
F-0.06979668754999901
aF0.0
aF0.0
aF-0.1
aa(lp121
F0.015935545546302284
aF-0.19889749888839814
aF-0.20437605502954193
aF-0.12364537361553232
aa(lp122
F0.5989464828313318
aF0.0
aF0.0
aF-0.04772654745942187
aa(lp123
F1.052668509979627
aF0.0
aF0.0
aF0.0
aa(lp124
F0.3031070352683393
aF0.15861760684695816
aF0.6100353295737247
aF2.2720177405995297
aa(lp125
F2.009563426465236
aF1.9560341899017668
aF1.8606247808232144
aF2.184352716292837
aa(lp126
F0.0
aF0.0
aF0.0
aF0.0
aa(lp127
F0.0
aF0.0
aF0.0
aF0.0
aa(lp128
F0.03353088622932742
aF0.05851842916332518
aF0.39640934827612423
aF0.05946575709395224
aa(lp129
F-0.29692619664872383
aF0.03635449603330613
aF0.4037270951539253
aF-0.017225476536874104
aa(lp130
F-0.5018808063225738
aF-0.17119488414365663
aF0.34084819396271243
aF-0.17495050579318672
aa(lp131
F-0.2719164499586879
aF-0.2921390823929142
aF0.18650696960166918
aF-0.519410022664486
aa(lp132
F-0.17768129378793976
aF-0.27706479523395366
aF0.19150515760678188
aF-0.209
aa(lp133
F-0.2693855485219101
aF-0.27869429665808393
aF0.297134433099221
aF-0.2
aa(lp134
F-0.08368665150943343
aF-0.20576741728213252
aF0.010563813349715151
aF-0.0890220125645534
aa(lp135
F0.45716538307506993
aF0.0
aF0.0
aF0.049455202757502204
aa(lp136
F1.1134885512384218
aF0.0
aF0.09266358396477263
aF0.0
aa(lp137
F1.452049755428448
aF0.0
aF0.3650416501716397
aF0.03875109230290276
aa(lp138
F1.5124072922807097
aF0.33063022474331
aF0.7499885712176814
aF0.8224973681335364
aa(lp139
F1.581219976306726
aF1.473712451721039
aF1.4419994587457765
aF1.950682538530718
aa(lp140
F0.0
aF0.0
aF0.0
aF0.0
aa(lp141
F0.0
aF0.0
aF0.0
aF0.0
aa(lp142
F0.4278036133793633
aF0.09252236602305655
aF0.023000962502209545
aF0.038454478244386484
aa(lp143
F0.17213795959155773
aF0.16057022620459147
aF0.4684562012223728
aF0.07449678960115225
aa(lp144
F0.14256341683356333
aF0.07632921438339729
aF0.4970651863775154
aF-0.24330511030480967
aa(lp145
F-0.02528488625183356
aF-0.04968319519055046
aF0.4095454547706837
aF-0.1897627401725111
aa(lp146
F0.45092289297134286
aF-0.10383544931451512
aF-0.10081575999774924
aF-0.18423820401223884
aa(lp147
F0.0956668279203826
aF-0.05787649931903365
aF0.6578693284886045
aF-0.19809831560466545
aa(lp148
F0.8514730702658119
aF-0.06315321317199284
aF-0.09998046646729034
aF-0.1
aa(lp149
F1.065788803457026
aF0.2629738508726259
aF0.07602082286982062
aF0.06216694301524292
aa(lp150
F1.185642931934088
aF0.5241115904766576
aF0.4841487643357575
aF0.5230331518954086
aa(lp151
F1.3007134975983161
aF0.15714944843690218
aF0.37960449345519015
aF0.6710260075498131
aa(lp152
F1.1369142839494693
aF0.5531991802402502
aF0.7904808547743503
aF1.5002970508615174
aa(lp153
F1.2782858632551246
aF1.1578809774774061
aF1.259097372990206
aF1.4944182957089325
aa(lp154
F0.0
aF0.0
aF0.0
aF0.0
aa(lp155
F0.0
aF0.0
aF0.0
aF0.0
aa(lp156
F0.4750057541823869
aF0.11557236406200784
aF0.23916320916632147
aF0.06777327314488103
aa(lp157
F0.511262680636961
aF0.3357183796894893
aF0.08300205887334838
aF0.11841277736798242
aa(lp158
F0.5579612583244067
aF0.26253514294125113
aF0.17957405996630116
aF0.16492657881439696
aa(lp159
F0.6269488557550178
aF0.37890429370814005
aF0.2416654939782297
aF0.26717616050309984
aa(lp160
F0.6619825243946282
aF0.3380911657839244
aF0.20302246995656875
aF0.3040664108303503
aa(lp161
F0.7759985078354035
aF0.41207333723278283
aF0.3680897146540218
aF0.4653164938189883
aa(lp162
F0.7996846244670259
aF0.4996526920172751
aF0.3883649086594679
aF0.29518909638525
aa(lp163
F0.6690410565812281
aF0.46249762644866066
aF0.3729037665507847
aF0.9635607649732596
aa(lp164
F0.7923501009053632
aF0.4395035097822728
aF0.030782555099723583
aF0.4356692329523544
aa(lp165
F0.9826377227781005
aF0.4621750956351607
aF0.38974486652082624
aF0.0
aa(lp166
F0.5550199837583091
aF0.48739990403300265
aF0.8802976945015101
aF0.6450831762424513
aa(lp167
F0.945308545165655
aF0.7730390805955066
aF0.9014765766770992
aF1.2461968970424633
aa(lp168
F0.0
aF0.0
aF0.0
aF0.0
aa(lp169
F0.0
aF0.0
aF0.0
aF0.0
aa(lp170
F0.43742922293260433
aF0.17529078344377344
aF0.13771087475276772
aF0.15420105330294956
aa(lp171
F0.04277515748432006
aF0.09098833147107878
aF0.13400140908195188
aF0.4613049806469409
aa(lp172
F0.02159355209769795
aF0.1410737708847527
aF0.08231305050531362
aF0.516480626343759
aa(lp173
F0.38102178619010707
aF0.04871772756818209
aF0.07923067473316439
aF0.0
aa(lp174
F0.5162121540142526
aF4.2982058729610686e-10
aF0.03519048021792877
aF0.0365098919650717
aa(lp175
F0.5828876336040623
aF1.8719250982715282e-14
aF0.04730770850841581
aF0.0
aa(lp176
F0.09819260573326533
aF9.418118336288842e-11
aF0.06340940811584132
aF0.7146292239754407
aa(lp177
F0.6604795438242245
aF0.12268918361085403
aF0.07969168975509798
aF0.08132582218205733
aa(lp178
F0.715825769752275
aF0.06643942523012716
aF0.06262426180722351
aF0.00013926286254161135
aa(lp179
F1.0414275008525932e-06
aF0.0
aF0.06626751307166966
aF0.7905975154581132
aa(lp180
F0.23295851332964168
aF0.25048418135382317
aF0.48086588223047694
aF0.9237907399529858
aa(lp181
F0.6768719312935538
aF0.4055748394057574
aF0.5293462291118959
aF0.974614370101724
aa(lp182
F0.0
aF0.0
aF0.0
aF0.0
aa(lp183
F0.0
aF0.0
aF0.0
aF0.0
aa(lp184
F0.0
aF0.0
aF0.0
aF0.0
aa(lp185
F0.0
aF0.0
aF0.0
aF0.0
aa(lp186
F0.0
aF0.0
aF0.0
aF0.0
aa(lp187
F0.0
aF0.0
aF0.0
aF0.0
aa(lp188
F0.0
aF0.0
aF0.0
aF0.0
aa(lp189
F0.0
aF0.0
aF0.0
aF0.0
aa(lp190
F0.0
aF0.0
aF0.0
aF0.0
aa(lp191
F0.0
aF0.0
aF0.0
aF0.0
aa(lp192
F0.0
aF0.0
aF0.0
aF0.0
aa(lp193
F0.0
aF0.0
aF0.0
aF0.0
aa(lp194
F0.0
aF0.0
aF0.0
aF0.0
aa(lp195
F0.0
aF0.0
aF0.0
aF0.0
aa(lp196
F0.0
aF0.0
aF0.0
aF0.0
aa.