(lp0
(lp1
F0.0
aF0.0
aF0.0
aF0.0
aa(lp2
F0.0
aF0.0
aF0.0
aF0.0
aa(lp3
F0.0
aF0.0
aF0.0
aF0.0
aa(lp4
F0.0
aF0.0
aF0.0
aF0.0
aa(lp5
F0.0
aF0.0
aF0.0
aF0.0
aa(lp6
F0.0
aF0.0
aF0.0
aF0.0
aa(lp7
F0.0
aF0.0
aF0.0
aF0.0
aa(lp8
F0.0
aF0.0
aF0.0
aF0.0
aa(lp9
F0.0
aF0.0
aF0.0
aF0.0
aa(lp10
F0.0
aF0.0
aF0.0
aF0.0
aa(lp11
F0.0
aF0.0
aF0.0
aF0.0
aa(lp12
F0.0
aF0.0
aF0.0
aF0.0
aa(lp13
F0.0
aF0.0
aF0.0
aF0.0
aa(lp14
F0.0
aF0.0
aF0.0
aF0.0
aa(lp15
F0.0
aF0.0
aF0.0
aF0.0
aa(lp16
F0.0
aF0.0
aF0.0
aF0.0
aa(lp17
F0.04038684030678199
aF0.0
aF0.0
aF0.0
aa(lp18
F0.13020934248619573
aF0.0
aF0.0
aF0.0
aa(lp19
F0.6007430125851914
aF0.025846617568442795
aF0.0
aF0.009378374531828684
aa(lp20
F0.04085908479096478
aF0.10653608115147381
aF1.32321492009037
aF0.0
aa(lp21
F0.4717306029172788
aF0.0
aF0.0
aF0.006082657574495222
aa(lp22
F0.7547720537297642
aF0.0352802132868502
aF0.0
aF0.0
aa(lp23
F0.04146257629403685
aF0.0
aF2.1453091534556084
aF0.0
aa(lp24
F1.3261628879850775
aF0.0
aF0.0
aF0.0
aa(lp25
F1.5652528225473175
aF0.0
aF0.0
aF0.0
aa(lp26
F3.1120770853180413
aF0.0
aF0.4227762286363653
aF0.0
aa(lp27
F0.682483160357731
aF0.9181596261653907
aF4.354189226672991
aF0.3624296580808097
aa(lp28
F0.0
aF0.0
aF0.0
aF0.0
aa(lp29
F0.0
aF0.0
aF0.0
aF0.0
aa(lp30
F0.0
aF0.0
aF0.0022032407604808193
aF0.0
aa(lp31
F0.11182556995191453
aF0.0
aF0.0013803783825589752
aF0.0
aa(lp32
F0.4941350781594644
aF0.03922757992231634
aF-0.08791998424453765
aF0.021007997858742435
aa(lp33
F0.10254641019392215
aF-0.06486382324807544
aF-0.22332701698048024
aF0.6541575284421188
aa(lp34
F1.8220515275152558
aF9.640103011160611e-05
aF-0.09771081538826396
aF0.09212196215943812
aa(lp35
F2.360727589042728
aF0.0
aF0.0
aF0.0
aa(lp36
F2.8987283970466846
aF0.259557627205003
aF0.0
aF0.02859531920199104
aa(lp37
F3.559508245360341
aF0.66490893840676
aF0.3728696885722245
aF8.350611926476226e-08
aa(lp38
F3.91898393646952
aF0.0
aF1.3617237779603772
aF0.0
aa(lp39
F4.311648632932803
aF0.0
aF0.0
aF0.00404088155993508
aa(lp40
F4.546222993345616
aF1.9073688435047202
aF2.6964203526349566
aF1.267114790427185
aa(lp41
F4.220547044469039
aF3.8201895718171377
aF5.512219008912401
aF3.488762917255925
aa(lp42
F0.0
aF0.0
aF0.0
aF0.0
aa(lp43
F0.0
aF0.0
aF0.0
aF0.0
aa(lp44
F-0.0033571829039303193
aF0.0018124499637608444
aF-0.006398745337604797
aF-0.005082641184255658
aa(lp45
F-0.24137060942254512
aF-0.08424908363912438
aF-0.07598550390218944
aF0.11236189449662884
aa(lp46
F-0.2570831684529086
aF-0.09045391692745414
aF-0.1265782969
aF0.29402011758521585
aa(lp47
F-0.1
aF-0.17512775651181
aF-0.209
aF0.27959433300377856
aa(lp48
F-0.1
aF-0.1
aF-0.4142
aF0.7824805668115485
aa(lp49
F0.8974000334248908
aF-0.1
aF-0.1
aF0.0
aa(lp50
F-0.1
aF-0.1
aF-0.209
aF0.7310107327578561
aa(lp51
F4.216751727175407
aF0.20951
aF0.0
aF0.0
aa(lp52
F5.898313924198194
aF0.0
aF0.0
aF0.0
aa(lp53
F0.0
aF0.0
aF0.0
aF0.0
aa(lp54
F6.739498710690153
aF8.987949383793586
aF5.351866843998426
aF4.537416179522111
aa(lp55
F6.0626683500362075
aF7.451261762917488
aF5.560405370509654
aF5.717171286340483
aa(lp56
F0.0
aF0.0
aF0.0
aF0.0
aa(lp57
F0.0
aF0.0
aF0.0
aF0.0
aa(lp58
F-0.027324479337310623
aF-0.015467351640052923
aF-0.023079429391981716
aF-0.011803302073760836
aa(lp59
F-0.42220074661658236
aF-0.12604923306380758
aF-0.18364624107774996
aF0.06373438065497633
aa(lp60
F-0.8877622906884269
aF-0.42084905052935706
aF-0.37782533299105564
aF-0.20651366221216436
aa(lp61
F-0.7919742828780092
aF-0.678069661387949
aF-0.6512320978498893
aF-0.8213569100965754
aa(lp62
F-0.8168510000000002
aF-0.7716498248891632
aF-0.8953302000000001
aF-0.5797205937921327
aa(lp63
F-0.38171000000000005
aF-0.63682122264401
aF-0.30000000000000004
aF-0.30158116300000004
aa(lp64
F-0.2
aF-0.5248929
aF-0.31800000000000006
aF-0.3070133363825952
aa(lp65
F-0.2
aF-0.2
aF-0.2
aF1.1436747427275304
aa(lp66
F0.0
aF0.0
aF0.0
aF1.0
aa(lp67
F1.0111935492952293
aF0.0
aF0.0
aF1.0
aa(lp68
F3.9342210609680386
aF1.1321185857247416
aF1.370465711430577
aF6.517410193649191
aa(lp69
F4.854701993428389
aF4.952614726959356
aF4.654665095975496
aF6.163815417314973
aa(lp70
F0.0
aF0.0
aF0.0
aF0.0
aa(lp71
F0.0
aF0.0
aF0.0
aF0.0
aa(lp72
F-0.08854472607340214
aF-0.04476474495682514
aF-0.03287503132848372
aF-0.01269256767947024
aa(lp73
F-0.44683897397303873
aF-0.1346825762813986
aF-0.17064948286779127
aF-0.12106934326364124
aa(lp74
F-0.9667929345509705
aF-0.26387210064247557
aF-0.6599570265796417
aF-0.5963487880010419
aa(lp75
F-1.6831635315375386
aF-1.3617207711155201
aF-1.559182355496381
aF-1.5434045517212573
aa(lp76
F-0.8918449193471015
aF-0.9479097563362349
aF-0.872165987489926
aF-0.804436089008411
aa(lp77
F-1.0971409613330372
aF-1.1885442743401724
aF-1.0705155311571215
aF-1.03940831
aa(lp78
F-0.6653947482256284
aF-0.8186845969157122
aF-0.7915684530065576
aF-0.6990181808640238
aa(lp79
F-0.06694563302527282
aF-0.2
aF-0.27030607427892395
aF-0.30890829684355336
aa(lp80
F0.30845659373803425
aF0.0
aF0.0
aF0.0
aa(lp81
F1.926825935861969
aF0.0
aF0.0
aF0.0
aa(lp82
F3.3484610336358713
aF1.1749821866681582
aF0.547356866789724
aF1.5728490758714708
aa(lp83
F3.656241637476677
aF3.4390675950750866
aF3.467787422815325
aF4.922268319292743
aa(lp84
F0.0
aF0.0
aF0.0
aF0.0
aa(lp85
F0.0
aF0.0
aF0.0
aF0.0
aa(lp86
F-0.09863409494049902
aF-0.0577769303358575
aF0.03835824597947664
aF-0.07072750450819955
aa(lp87
F-0.20381523890632064
aF-0.18549537271962635
aF-0.21848890618781386
aF-0.18703010438077455
aa(lp88
F-1.031801435453603
aF-0.4549485053309173
aF-0.7325029771824813
aF-0.746485836445817
aa(lp89
F-1.3326056742728045
aF-1.3010737088313005
aF-1.3092240420886614
aF-1.3607788531164595
aa(lp90
F-1.8490273016764642
aF-1.9109729857223645
aF-1.851574625931759
aF-1.8240341698080849
aa(lp91
F-1.1232924328287697
aF-1.3478426625020332
aF-1.1784200799338602
aF-1.1238324349140965
aa(lp92
F-0.7485278366929748
aF-0.7986000000000001
aF-0.8362585457856071
aF-0.6771
aa(lp93
F0.011470214776599374
aF-0.43376899282853537
aF-0.20707350749380957
aF-0.16858120285942632
aa(lp94
F0.7213289857790155
aF-0.06570426786358
aF0.0
aF0.0
aa(lp95
F1.700482965458357
aF0.0
aF0.0
aF0.0
aa(lp96
F3.0742633946598996
aF0.6595482450506138
aF0.6324772411243603
aF0.9972663802835462
aa(lp97
F3.063321754677379
aF3.113976556408092
aF2.8802068948023862
aF4.089367471398377
aa(lp98
F0.0
aF0.0
aF0.0
aF0.0
aa(lp99
F0.0
aF0.0
aF0.0
aF0.0
aa(lp100
F-0.13396950682265488
aF0.007909432150243399
aF0.1323401683882385
aF-0.027798657687028796
aa(lp101
F-0.6823706478857238
aF-0.23148457883648949
aF-0.04228408608792879
aF-0.25760839913820444
aa(lp102
F-0.7664835703352004
aF-0.6897967668638803
aF-0.6659890162504484
aF-0.7768136928653335
aa(lp103
F-1.421419269384923
aF-1.1196329971393946
aF-1.2186528352481152
aF-1.7835274921705393
aa(lp104
F-1.3479882507263836
aF-1.2102547443308833
aF-1.3476408046215798
aF-1.5578398066761694
aa(lp105
F-1.3072972561843283
aF-1.2417898679902184
aF-1.0979799111153041
aF-1.1443538671708335
aa(lp106
F-0.6007562656311548
aF-0.6806899330686507
aF-0.6462952813948268
aF-0.7486440415854804
aa(lp107
F-0.069120993484901
aF-0.209
aF-0.18994984407628396
aF-0.389
aa(lp108
F-0.1
aF-0.1
aF0.02365405719626577
aF-0.06570426786358
aa(lp109
F1.0442532584405957
aF0.0
aF0.2104491863113836
aF0.0
aa(lp110
F0.23498369003062514
aF0.4394750799005601
aF0.5663346742568395
aF3.0384434858719183
aa(lp111
F2.3575509872546236
aF2.4914401465734346
aF2.091825249093738
aF3.0539328360538875
aa(lp112
F0.0
aF0.0
aF0.0
aF0.0
aa(lp113
F0.0
aF0.0
aF0.0
aF0.0
aa(lp114
F0.013379849587079407
aF0.11519145834277926
aF0.27636672984186317
aF-0.026204418643949533
aa(lp115
F-0.6198318197169783
aF-0.06957561600345585
aF0.10324063461044017
aF-0.17470857915588225
aa(lp116
F-0.6017560806205116
aF-0.2619302319103858
aF-0.4939689420350286
aF-0.8590280506209952
aa(lp117
F-0.9671281080679087
aF-0.7042626185130278
aF-0.8598401137109827
aF-0.9315620272739193
aa(lp118
F-0.772765132073038
aF-0.8353141527812803
aF-0.632913149015457
aF-0.7292736010368419
aa(lp119
F-0.6238289395930624
aF-0.78136616674452
aF-0.6281714990890168
aF-0.8340708
aa(lp120
F-0.09429205099516468
aF-0.2
aF-0.18962589765626597
aF-0.20636290342443273
aa(lp121
F0.06731450182797122
aF-0.09999953662804287
aF0.0
aF0.0
aa(lp122
F0.006956654305703865
aF-0.09999953662804287
aF-0.09995333046362982
aF-0.09973505828494525
aa(lp123
F1.069958073744101
aF0.04311301350397967
aF0.0
aF0.2994415362211072
aa(lp124
F0.5712014247522521
aF0.33845426293815095
aF0.1607286836493358
aF2.4466867079826313
aa(lp125
F1.9552745948817325
aF1.990217760702098
aF1.8260670780822754
aF2.3787268843324774
aa(lp126
F0.0
aF0.0
aF0.0
aF0.0
aa(lp127
F0.0
aF0.0
aF0.0
aF0.0
aa(lp128
F0.07263883586004023
aF0.056063366410725846
aF0.2998463126441959
aF0.03368252632157333
aa(lp129
F-0.3446886050488633
aF0.06811173166689483
aF0.31230640075516386
aF0.008723069489559069
aa(lp130
F-0.3491781913497726
aF-0.07018909052199335
aF0.20909811861816752
aF-0.2691744028670328
aa(lp131
F-0.28811548707753815
aF-0.1747534999787595
aF-0.006126874034038977
aF-0.42391999999999996
aa(lp132
F-0.1
aF-0.1
aF0.028731387480253244
aF-0.23176070783255753
aa(lp133
F-0.3430640584349618
aF-0.199
aF-0.07188275290824339
aF-0.21800000000000003
aa(lp134
F-0.0999600091085021
aF-0.10808984947870022
aF0.02026221643893202
aF-0.09928939593062315
aa(lp135
F0.007722457357158137
aF0.0
aF0.026971479205389205
aF0.0
aa(lp136
F0.07170038101925402
aF0.0
aF0.15432267776759295
aF0.0
aa(lp137
F0.7798599900192975
aF0.0
aF0.0
aF0.0
aa(lp138
F0.0
aF0.1813109349285861
aF0.20473825241829224
aF2.031043521501137
aa(lp139
F1.6021167749258105
aF1.6655933690268776
aF1.4423972390118682
aF1.7535834562777244
aa(lp140
F0.0
aF0.0
aF0.0
aF0.0
aa(lp141
F0.0
aF0.0
aF0.0
aF0.0
aa(lp142
F0.3197815146009419
aF0.05495083477253293
aF0.06248617208181833
aF0.040515367576767124
aa(lp143
F0.09698933861371486
aF0.057048385561646445
aF0.3596249172541787
aF0.0653526529000526
aa(lp144
F0.08758076508623866
aF0.0031059826916658463
aF0.2636147685718802
aF-0.1920460996963942
aa(lp145
F-0.07013066216042234
aF-0.0395072455512898
aF0.30241931954321627
aF-0.19
aa(lp146
F0.009328536836260311
aF0.0022622295578588326
aF0.17926270054450402
aF-0.19384154973241938
aa(lp147
F0.2689718961044028
aF2.0128263616126013e-05
aF0.04969500751576374
aF-0.18923223148875834
aa(lp148
F0.3316842615740305
aF0.0
aF0.0
aF0.0
aa(lp149
F0.5701532755426203
aF0.0
aF0.08268704535765684
aF0.0064530342917328625
aa(lp150
F0.7850030970294447
aF0.0
aF0.08303088814062595
aF0.0016561390927385866
aa(lp151
F1.077204018456502
aF0.043647126049688595
aF0.15249853457368795
aF0.0
aa(lp152
F1.2412474295307407
aF0.09421174950218315
aF0.0888720358237192
aF0.919144784254467
aa(lp153
F1.2176026818472443
aF1.1121320122551768
aF1.2036062076082592
aF1.4011546200746094
aa(lp154
F0.0
aF0.0
aF0.0
aF0.0
aa(lp155
F0.0
aF0.0
aF0.0
aF0.0
aa(lp156
F0.3569835784142278
aF0.0953663798285136
aF0.12038225840603145
aF0.11399126450869854
aa(lp157
F0.1384466707060533
aF0.10955476996398411
aF0.3858704943142174
aF0.11167493120427426
aa(lp158
F0.41084412152302624
aF0.11806743955652191
aF0.20130021435521137
aF0.13680443984210358
aa(lp159
F0.2207591007593615
aF0.1676686270479631
aF0.41386130585296593
aF0.049788837043555814
aa(lp160
F0.1827724329474906
aF0.15457129385436877
aF0.5125243528225453
aF0.1217811158660492
aa(lp161
F0.06485948106516767
aF0.04277411557723438
aF0.5125924402441264
aF0.04501526515584006
aa(lp162
F0.5803049063525116
aF0.023661874523084256
aF0.0636252468630325
aF0.0502294391954585
aa(lp163
F0.7428841581223046
aF0.060189383950315936
aF0.22967250843730136
aF0.0
aa(lp164
F0.2539565547870136
aF0.06964197898535615
aF0.7395226165436797
aF0.19341245740673052
aa(lp165
F0.9621159328911721
aF0.42901204384560004
aF0.24898377125914384
aF0.6439323134107728
aa(lp166
F0.9483099350504028
aF0.7741006418850196
aF0.6138485988118911
aF0.7855569011986135
aa(lp167
F1.0319062328192141
aF0.9922526726685607
aF0.943988437730392
aF1.0620248248956856
aa(lp168
F0.0
aF0.0
aF0.0
aF0.0
aa(lp169
F0.0
aF0.0
aF0.0
aF0.0
aa(lp170
F0.39595743823796076
aF0.14662449406452457
aF0.1299923624807587
aF0.04876628665010457
aa(lp171
F0.4319235329270407
aF0.10891772038515803
aF0.1870725722443533
aF0.1109572817161275
aa(lp172
F0.47221373714579445
aF0.20380973415005746
aF0.17096223312358408
aF0.1995887525126022
aa(lp173
F0.518167312003752
aF0.2474138149321824
aF0.22020166521442636
aF0.24545969093148484
aa(lp174
F0.557392290800937
aF0.3114511468856271
aF0.39211766776645857
aF0.2542435736738709
aa(lp175
F0.6119624059928832
aF0.37607962652563326
aF0.3045908012865913
aF0.2720255142446928
aa(lp176
F0.6719143206384321
aF0.32366267851431685
aF0.33232368000199847
aF0.2817836199037052
aa(lp177
F0.7515204684659497
aF0.44982538732413907
aF0.49473685012411617
aF0.36498192352634196
aa(lp178
F0.7597145543237455
aF0.4027284492490687
aF0.4801059494473664
aF0.48772696751141226
aa(lp179
F0.49224723159872125
aF0.5070049764927266
aF0.5934512998428982
aF0.8682072129028529
aa(lp180
F0.7781823213181228
aF0.6230763953279372
aF0.4317455976012528
aF0.7374694693460233
aa(lp181
F0.6173480008048534
aF0.5746353602481723
aF0.6447743011712017
aF0.8991690442181645
aa(lp182
F0.0
aF0.0
aF0.0
aF0.0
aa(lp183
F0.0
aF0.0
aF0.0
aF0.0
aa(lp184
F0.0
aF0.0
aF0.0
aF0.0
aa(lp185
F0.0
aF0.0
aF0.0
aF0.0
aa(lp186
F0.0
aF0.0
aF0.0
aF0.0
aa(lp187
F0.0
aF0.0
aF0.0
aF0.0
aa(lp188
F0.0
aF0.0
aF0.0
aF0.0
aa(lp189
F0.0
aF0.0
aF0.0
aF0.0
aa(lp190
F0.0
aF0.0
aF0.0
aF0.0
aa(lp191
F0.0
aF0.0
aF0.0
aF0.0
aa(lp192
F0.0
aF0.0
aF0.0
aF0.0
aa(lp193
F0.0
aF0.0
aF0.0
aF0.0
aa(lp194
F0.0
aF0.0
aF0.0
aF0.0
aa(lp195
F0.0
aF0.0
aF0.0
aF0.0
aa(lp196
F0.0
aF0.0
aF0.0
aF0.0
aa.